(dp0
I1
(S'10:0_carpic_acid_g_TopFoods'
p1
(lp2
S'4047.0'
p3
aS'4513.0'
p4
aS'12108.0'
p5
aS'1145.0'
p6
aS'12115.0'
p7
aS'12104.0'
p8
aS'4602.0'
p9
aS'12117.0'
p10
aS'2043.0'
p11
aS'1045.0'
p12
aS'1229.0'
p13
aS'17005.0'
p14
aS'4536.0'
p15
aS'2011.0'
p16
aS'2042.0'
p17
aS'1116.0'
p18
aS'1230.0'
p19
aS'1211.0'
p20
aS'1117.0'
p21
aS'2030.0'
p22
aS'9144.0'
p23
aS'1175.0'
p24
aS'20008.0'
p25
aS'2014.0'
p26
aS'5062.0'
p27
aS'20011.0'
p28
aS'12087.0'
p29
aS'9079.0'
p30
aS'2009.0'
p31
aS'12119.0'
p32
aS'2005.0'
p33
aS'2004.0'
p34
aS'1125.0'
p35
aS'20647.0'
p36
aS'15265.0'
p37
aS'20648.0'
p38
aS'1123.0'
p39
aS'1118.0'
p40
aS'2046.0'
p41
aS'12151.0'
p42
aS'16085.0'
p43
aS'2027.0'
p44
aS'12014.0'
p45
aS'2010.0'
p46
aS'9542.0'
p47
aS'11215.0'
p48
aS'9087.0'
p49
aS'11362.0'
p50
aS'9040.0'
p51
aS'9326.0'
p52
aS'16144.0'
p53
aS'20031.0'
p54
aS'5053.0'
p55
aS'5080.0'
p56
aS'16130.0'
p57
aS'5023.0'
p58
aS'5027.0'
p59
aS'5025.0'
p60
aS'5137.0'
p61
aS'5020.0'
p62
aS'5011.0'
p63
aS'20035.0'
p64
aS'4593.0'
p65
aS'4589.0'
p66
aS'4584.0'
p67
aS'4583.0'
p68
aS'5105.0'
p69
aS'9033.0'
p70
aS'5332.0'
p71
aS'9021.0'
p72
aS'9145.0'
p73
aS'20028.0'
p74
aS'9139.0'
p75
aS'9132.0'
p76
aS'9111.0'
p77
aS'9110.0'
p78
aS'9107.0'
p79
aS'9094.0'
p80
aS'9089.0'
p81
aS'20029.0'
p82
aS'9078.0'
p83
aS'9077.0'
p84
aS'9070.0'
p85
aS'9061.0'
p86
aS'9060.0'
p87
aS'9050.0'
p88
aS'9042.0'
p89
aS'9037.0'
p90
aS'4531.0'
p91
aS'20038.0'
p92
aS'4055.0'
p93
aS'4529.0'
p94
aS'2002.0'
p95
aS'2019.0'
p96
aS'2018.0'
p97
aS'20066.0'
p98
aS'20067.0'
p99
aS'20075.0'
p100
aS'2006.0'
p101
aS'20080.0'
p102
aS'20090.0'
p103
aS'20105.0'
p104
aS'2024.0'
p105
aS'20118.0'
p106
aS'20124.0'
p107
aS'20130.0'
p108
aS'20131.0'
p109
aS'20140.0'
p110
aS'1124.0'
p111
aS'20314.0'
p112
aS'20316.0'
p113
aS'2022.0'
p114
aS'2025.0'
p115
aS'4514.0'
p116
aS'2065.0'
p117
aS'20040.0'
p118
aS'4058.0'
p119
aS'9150.0'
p120
aS'4053.0'
p121
aS'20058.0'
p122
aS'4042.0'
p123
aS'4037.0'
p124
aS'2069.0'
p125
aS'2050.0'
p126
aS'2028.0'
p127
aS'2047.0'
p128
aS'2044.0'
p129
aS'20061.0'
p130
aS'20062.0'
p131
aS'2037.0'
p132
aS'2033.0'
p133
aS'20064.0'
p134
aS'2029.0'
p135
aS'9148.0'
p136
aS'9165.0'
p137
aS'9159.0'
p138
aS'11304.0'
p139
aS'12131.0'
p140
aS'12120.0'
p141
aS'16135.0'
p142
aS'16157.0'
p143
aS'16167.0'
p144
aS'16426.0'
p145
aS'12100.0'
p146
aS'20004.0'
p147
aS'12061.0'
p148
aS'12036.0'
p149
aS'12023.0'
p150
aS'12021.0'
p151
aS'12006.0'
p152
aS'11696.0'
p153
aS'11670.0'
p154
aS'11620.0'
p155
aS'11601.0'
p156
aS'11457.0'
p157
aS'11429.0'
p158
aS'12142.0'
p159
aS'12147.0'
p160
aS'12154.0'
p161
aS'16056.0'
p162
aS'16112.0'
p163
aS'16108.0'
p164
aS'16101.0'
p165
aS'16087.0'
p166
aS'16080.0'
p167
aS'16078.0'
p168
aS'16076.0'
p169
aS'16062.0'
p170
aS'16027.0'
p171
aS'12155.0'
p172
aS'16022.0'
p173
aS'16133.0'
p174
aS'15004.0'
p175
aS'15003.0'
p176
aS'15002.0'
p177
aS'15001.0'
p178
aS'12220.0'
p179
aS'12174.0'
p180
aS'11422.0'
p181
aS'11282.0'
p182
aS'9163.0'
p183
aS'11278.0'
p184
aS'9302.0'
p185
aS'9298.0'
p186
aS'9297.0'
p187
aS'9292.0'
p188
aS'9286.0'
p189
aS'9279.0'
p190
aS'9266.0'
p191
aS'9260.0'
p192
aS'9252.0'
p193
aS'9246.0'
p194
aS'9236.0'
p195
aS'9226.0'
p196
aS'9218.0'
p197
aS'9200.0'
p198
aS'9190.0'
p199
aS'9184.0'
p200
aS'9176.0'
p201
aS'16115.0'
p202
aS'9164.0'
p203
aS'20012.0'
p204
aS'9311.0'
p205
aS'9313.0'
p206
aS'11124.0'
p207
aS'11270.0'
p208
aS'11260.0'
p209
aS'11253.0'
p210
aS'11233.0'
p211
aS'11216.0'
p212
aS'11209.0'
p213
aS'11205.0'
p214
aS'11165.0'
p215
aS'11109.0'
p216
aS'9316.0'
p217
aS'11090.0'
p218
aS'11080.0'
p219
aS'11052.0'
p220
aS'11003.0'
p221
aS'9500.0'
p222
aS'9421.0'
p223
aS'9322.0'
p224
aS'9321.0'
p225
aS'9307.0'
p226
atp227
sI2
(S'12:0_Lauric_Acid_g_TopFoods'
p228
(lp229
g4
ag3
ag5
ag7
ag8
ag10
ag6
ag9
ag15
ag12
ag13
ag34
ag115
ag14
ag44
ag17
ag18
ag93
ag22
ag32
ag31
ag19
ag20
ag140
ag127
ag21
ag212
ag16
ag55
ag24
ag92
ag177
ag26
ag29
ag178
ag69
ag33
ag25
ag63
ag28
ag35
ag169
ag45
ag211
ag40
ag46
ag189
ag147
ag109
ag56
ag27
ag23
ag108
ag11
ag103
ag54
ag50
ag196
ag41
ag118
ag200
ag47
ag53
ag37
ag51
ag187
ag52
ag36
ag186
ag201
ag49
ag84
ag181
ag38
ag99
ag170
ag43
ag106
ag151
ag65
ag66
ag67
ag68
ag163
ag91
ag116
ag94
ag165
ag202
ag119
ag57
ag121
ag174
ag123
ag164
ag58
ag62
ag125
ag60
ag59
ag166
ag167
ag168
ag61
ag71
ag72
ag70
ag90
ag89
ag88
ag87
ag124
ag126
ag117
ag150
ag130
ag131
ag101
ag134
ag98
ag95
ag100
ag102
ag104
ag107
ag111
ag39
ag110
ag112
ag113
ag122
ag64
ag97
ag133
ag128
ag142
ag129
ag143
ag144
ag132
ag145
ag96
ag135
ag204
ag74
ag82
ag105
ag114
ag86
ag85
ag162
ag48
ag214
ag215
ag207
ag216
ag218
ag219
ag220
ag221
ag159
ag222
ag223
ag160
ag224
ag225
ag217
ag213
ag141
ag83
ag146
ag152
ag153
ag154
ag155
ag156
ag157
ag158
ag149
ag148
ag139
ag182
ag184
ag208
ag209
ag210
ag206
ag205
ag42
ag185
ag183
ag138
ag120
ag136
ag73
ag173
ag75
ag76
ag77
ag78
ag79
ag80
ag81
ag171
ag30
ag203
ag137
ag175
ag192
ag161
ag172
ag188
ag180
ag190
ag191
ag193
ag176
ag194
ag195
ag179
ag197
ag198
ag199
ag226
atp230
sI3
(S'13:0_Tridecanoic_acid_g_TopFoods'
p231
(lp232
g31
ag38
ag77
ag79
ag80
ag81
ag49
ag30
ag83
ag84
ag85
ag86
ag87
ag88
ag89
ag51
ag90
ag70
ag72
ag71
ag61
ag69
ag56
ag27
ag55
ag59
ag60
ag78
ag76
ag62
ag197
ag186
ag187
ag188
ag189
ag190
ag191
ag192
ag193
ag194
ag195
ag196
ag198
ag75
ag199
ag200
ag201
ag137
ag203
ag183
ag138
ag120
ag136
ag73
ag23
ag58
ag63
ag36
ag34
ag44
ag115
ag105
ag114
ag96
ag97
ag26
ag16
ag46
ag101
ag33
ag95
ag135
ag19
ag13
ag20
ag24
ag6
ag35
ag111
ag39
ag40
ag21
ag18
ag127
ag22
ag9
ag121
ag65
ag66
ag67
ag68
ag15
ag91
ag94
ag116
ag4
ag119
ag93
ag3
ag133
ag123
ag124
ag125
ag117
ag126
ag128
ag41
ag129
ag11
ag17
ag132
ag185
ag226
ag205
ag166
ag145
ag144
ag143
ag53
ag142
ag174
ag57
ag202
ag163
ag164
ag165
ag43
ag147
ag167
ag168
ag169
ag170
ag162
ag171
ag173
ag37
ag175
ag176
ag177
ag14
ag25
ag179
ag99
ag113
ag112
ag110
ag109
ag108
ag107
ag106
ag104
ag103
ag102
ag100
ag98
ag28
ag134
ag131
ag130
ag122
ag118
ag92
ag64
ag54
ag82
ag74
ag204
ag178
ag180
ag206
ag207
ag182
ag184
ag208
ag209
ag210
ag211
ag212
ag48
ag213
ag214
ag215
ag216
ag50
ag218
ag219
ag220
ag221
ag47
ag222
ag223
ag52
ag224
ag225
ag217
ag139
ag181
ag172
ag146
ag161
ag42
ag160
ag159
ag140
ag141
ag32
ag10
ag7
ag5
ag8
ag29
ag158
ag148
ag149
ag150
ag151
ag45
ag152
ag153
ag154
ag155
ag156
ag157
ag12
atp233
sI4
(S'14:0_Miristic_Acid_g_TopFoods'
p234
(lp235
g115
ag3
ag4
ag5
ag6
ag7
ag8
ag9
ag10
ag66
ag65
ag14
ag12
ag13
ag68
ag93
ag114
ag124
ag140
ag177
ag11
ag18
ag178
ag19
ag20
ag16
ag34
ag31
ag127
ag21
ag17
ag37
ag150
ag35
ag91
ag15
ag123
ag24
ag176
ag133
ag60
ag45
ag67
ag202
ag164
ag175
ag71
ag55
ag33
ag32
ag151
ag39
ag101
ag69
ag152
ag22
ag142
ag106
ag25
ag166
ag149
ag145
ag28
ag56
ag63
ag62
ag61
ag40
ag75
ag42
ag26
ag212
ag146
ag92
ag29
ag163
ag196
ag201
ag169
ag59
ag27
ag147
ag144
ag143
ag103
ag157
ag118
ag46
ag162
ag109
ag108
ag130
ag179
ag58
ag224
ag80
ag181
ag189
ag43
ag137
ag211
ag132
ag214
ag107
ag173
ag44
ag57
ag41
ag186
ag47
ag117
ag182
ag23
ag148
ag36
ag104
ag100
ag170
ag53
ag81
ag51
ag203
ag200
ag197
ag38
ag187
ag218
ag99
ag98
ag134
ag131
ag226
ag221
ag174
ag85
ag84
ag204
ag74
ag49
ag154
ag50
ag76
ag120
ag138
ag126
ag161
ag160
ag159
ag121
ag141
ag153
ag156
ag158
ag128
ag125
ag155
ag129
ag172
ag135
ag167
ag180
ag95
ag113
ag112
ag110
ag102
ag111
ag122
ag64
ag54
ag171
ag82
ag165
ag119
ag97
ag96
ag168
ag105
ag139
ag195
ag184
ag116
ag88
ag87
ag86
ag83
ag30
ag185
ag79
ag78
ag77
ag188
ag190
ag73
ag136
ag183
ag191
ag192
ag193
ag194
ag199
ag89
ag205
ag90
ag216
ag94
ag208
ag198
ag210
ag48
ag213
ag215
ag207
ag219
ag70
ag220
ag222
ag223
ag52
ag225
ag217
ag206
ag72
ag209
atp236
sI5
(S'14:1_Miristoleic_acid_g_TopFoods'
p237
(lp238
g13
ag11
ag152
ag35
ag22
ag71
ag39
ag24
ag56
ag23
ag27
ag38
ag37
ag36
ag34
ag75
ag77
ag78
ag79
ag80
ag81
ag49
ag30
ag83
ag84
ag85
ag21
ag86
ag87
ag88
ag89
ag51
ag90
ag70
ag72
ag40
ag61
ag76
ag18
ag111
ag73
ag187
ag188
ag189
ag190
ag191
ag192
ag193
ag194
ag195
ag196
ag197
ag198
ag199
ag200
ag201
ag137
ag203
ag183
ag138
ag120
ag136
ag69
ag6
ag33
ag117
ag128
ag41
ag129
ag19
ag17
ag132
ag133
ag95
ag135
ag127
ag44
ag115
ag105
ag114
ag96
ag97
ag26
ag16
ag46
ag31
ag101
ag126
ag125
ag55
ag124
ag59
ag60
ag58
ag62
ag63
ag186
ag65
ag66
ag67
ag68
ag15
ag20
ag91
ag94
ag116
ag4
ag119
ag93
ag121
ag3
ag123
ag9
ag226
ag185
ag166
ag145
ag144
ag143
ag53
ag142
ag174
ag57
ag202
ag163
ag164
ag165
ag43
ag147
ag167
ag168
ag169
ag170
ag162
ag171
ag173
ag175
ag176
ag177
ag178
ag14
ag25
ag205
ag99
ag113
ag112
ag110
ag109
ag108
ag107
ag106
ag104
ag103
ag102
ag100
ag98
ag28
ag134
ag131
ag130
ag122
ag118
ag92
ag64
ag54
ag82
ag74
ag204
ag179
ag180
ag172
ag216
ag184
ag208
ag209
ag210
ag211
ag212
ag48
ag213
ag214
ag215
ag207
ag218
ag161
ag219
ag220
ag221
ag47
ag222
ag223
ag52
ag224
ag225
ag217
ag206
ag182
ag139
ag50
ag181
ag42
ag160
ag159
ag140
ag141
ag32
ag10
ag7
ag5
ag8
ag146
ag29
ag148
ag149
ag150
ag151
ag45
ag153
ag154
ag155
ag156
ag157
ag158
ag12
atp239
sI6
(S'15:0_Pentadecanoic_acid_g_TopFoods'
p240
(lp241
g67
ag13
ag152
ag37
ag16
ag3
ag35
ag24
ag45
ag39
ag106
ag179
ag43
ag107
ag27
ag53
ag56
ag23
ag36
ag186
ag41
ag38
ag99
ag187
ag47
ag87
ag79
ag80
ag81
ag49
ag30
ag83
ag84
ag85
ag86
ag88
ag77
ag89
ag51
ag90
ag70
ag111
ag6
ag72
ag71
ag61
ag78
ag46
ag69
ag75
ag193
ag18
ag194
ag21
ag195
ag196
ag197
ag198
ag199
ag200
ag201
ag137
ag203
ag183
ag138
ag120
ag136
ag73
ag40
ag76
ag20
ag26
ag133
ag117
ag33
ag126
ag128
ag101
ag129
ag11
ag17
ag132
ag31
ag124
ag22
ag135
ag127
ag44
ag115
ag105
ag114
ag96
ag97
ag125
ag123
ag55
ag68
ag59
ag60
ag58
ag62
ag63
ag9
ag65
ag66
ag191
ag15
ag34
ag91
ag19
ag94
ag116
ag4
ag119
ag95
ag93
ag121
ag192
ag226
ag190
ag42
ag144
ag143
ag142
ag174
ag57
ag202
ag163
ag164
ag165
ag166
ag167
ag168
ag169
ag170
ag162
ag171
ag173
ag175
ag176
ag177
ag178
ag180
ag172
ag145
ag14
ag147
ag134
ag113
ag112
ag110
ag109
ag108
ag104
ag103
ag102
ag100
ag98
ag131
ag25
ag130
ag122
ag118
ag92
ag64
ag54
ag82
ag74
ag204
ag28
ag161
ag160
ag189
ag159
ag210
ag211
ag212
ag48
ag213
ag214
ag215
ag207
ag216
ag218
ag219
ag220
ag221
ag222
ag223
ag52
ag224
ag225
ag217
ag206
ag205
ag185
ag188
ag209
ag208
ag184
ag149
ag140
ag141
ag32
ag10
ag7
ag5
ag8
ag146
ag29
ag148
ag150
ag182
ag151
ag153
ag154
ag155
ag156
ag157
ag158
ag181
ag50
ag139
ag12
atp242
sI7
(S'15:1_g_TopFoods'
p243
(lp244
g163
ag13
ag24
ag38
ag89
ag80
ag81
ag49
ag30
ag83
ag84
ag85
ag86
ag87
ag88
ag90
ag51
ag78
ag70
ag72
ag71
ag61
ag69
ag56
ag27
ag55
ag59
ag60
ag79
ag76
ag77
ag198
ag187
ag188
ag189
ag190
ag191
ag192
ag193
ag194
ag195
ag196
ag197
ag199
ag62
ag200
ag201
ag137
ag203
ag183
ag138
ag120
ag136
ag73
ag23
ag75
ag58
ag9
ag63
ag101
ag127
ag44
ag115
ag105
ag114
ag96
ag97
ag26
ag16
ag46
ag31
ag33
ag185
ag34
ag95
ag19
ag20
ag6
ag35
ag111
ag39
ag40
ag21
ag18
ag135
ag22
ag133
ag132
ag65
ag66
ag67
ag68
ag15
ag91
ag94
ag116
ag4
ag119
ag93
ag121
ag3
ag123
ag124
ag125
ag117
ag126
ag128
ag41
ag129
ag11
ag17
ag186
ag226
ag36
ag43
ag145
ag144
ag143
ag53
ag142
ag174
ag57
ag202
ag164
ag165
ag166
ag167
ag147
ag168
ag169
ag170
ag162
ag171
ag173
ag37
ag175
ag176
ag177
ag178
ag14
ag25
ag180
ag99
ag113
ag112
ag110
ag109
ag108
ag107
ag106
ag104
ag103
ag102
ag100
ag98
ag28
ag134
ag131
ag130
ag122
ag118
ag92
ag64
ag54
ag82
ag74
ag204
ag179
ag172
ag205
ag216
ag184
ag208
ag209
ag210
ag211
ag212
ag48
ag213
ag214
ag215
ag207
ag218
ag139
ag219
ag220
ag221
ag47
ag222
ag223
ag52
ag224
ag225
ag217
ag206
ag182
ag50
ag161
ag29
ag42
ag160
ag159
ag140
ag141
ag32
ag10
ag7
ag5
ag8
ag146
ag148
ag181
ag149
ag150
ag151
ag45
ag152
ag153
ag154
ag155
ag156
ag157
ag158
ag12
atp245
sI8
(S'16:0_g_TopFoods'
p246
(lp247
g93
ag6
ag124
ag14
ag9
ag91
ag121
ag66
ag116
ag65
ag123
ag119
ag3
ag4
ag114
ag35
ag12
ag94
ag13
ag140
ag5
ag180
ag45
ag42
ag166
ag144
ag150
ag172
ag15
ag159
ag29
ag68
ag67
ag133
ag106
ag160
ag141
ag148
ag7
ag8
ag151
ag115
ag39
ag149
ag202
ag152
ag179
ag164
ag90
ag10
ag161
ag16
ag71
ag17
ag31
ag127
ag60
ag177
ag34
ag142
ag135
ag132
ag26
ag92
ag55
ag105
ag145
ag61
ag18
ag59
ag19
ag20
ag44
ag56
ag163
ag62
ag169
ag178
ag146
ag64
ag69
ag176
ag101
ag112
ag143
ag99
ag22
ag63
ag54
ag162
ag97
ag103
ag37
ag113
ag118
ag25
ag38
ag21
ag28
ag147
ag102
ag33
ag36
ag27
ag175
ag107
ag110
ag109
ag58
ag100
ag130
ag174
ag168
ag165
ag24
ag108
ag53
ag43
ag170
ag167
ag75
ag204
ag137
ag131
ag173
ag134
ag224
ag211
ag11
ag57
ag117
ag23
ag98
ag104
ag212
ag41
ag183
ag80
ag74
ag171
ag46
ag51
ag206
ag48
ag218
ag221
ag201
ag194
ag189
ag203
ag139
ag196
ag47
ag186
ag40
ag157
ag226
ag76
ag81
ag220
ag209
ag84
ag181
ag187
ag129
ag197
ag120
ag216
ag30
ag182
ag156
ag200
ag207
ag214
ag225
ag158
ag153
ag82
ag85
ag219
ag213
ag72
ag184
ag138
ag79
ag210
ag32
ag49
ag193
ag88
ag195
ag136
ag50
ag185
ag154
ag190
ag192
ag198
ag217
ag215
ag89
ag77
ag87
ag52
ag188
ag199
ag70
ag83
ag191
ag208
ag126
ag95
ag96
ag128
ag205
ag122
ag73
ag86
ag111
ag223
ag222
ag155
ag125
ag78
atp248
sI9
(S'16:1_c_g_TopFoods'
p249
(lp250
g6
ag13
ag148
ag39
ag56
ag37
ag27
ag106
ag45
ag16
ag23
ag24
ag3
ag38
ag41
ag36
ag47
ag107
ag43
ag186
ag86
ag83
ag30
ag84
ag49
ag85
ag90
ag87
ag88
ag89
ag51
ag70
ag72
ag71
ag61
ag69
ag81
ag75
ag80
ag201
ag191
ag192
ag193
ag194
ag195
ag196
ag197
ag198
ag199
ag200
ag137
ag79
ag203
ag183
ag138
ag120
ag136
ag73
ag59
ag76
ag77
ag78
ag55
ag65
ag60
ag58
ag22
ag135
ag127
ag44
ag115
ag105
ag114
ag96
ag97
ag26
ag46
ag31
ag101
ag33
ag34
ag95
ag19
ag20
ag35
ag111
ag40
ag21
ag18
ag133
ag132
ag17
ag116
ag62
ag63
ag9
ag189
ag66
ag67
ag68
ag15
ag91
ag94
ag4
ag11
ag119
ag93
ag121
ag123
ag124
ag125
ag117
ag126
ag128
ag129
ag190
ag226
ag188
ag14
ag144
ag143
ag53
ag142
ag174
ag57
ag202
ag163
ag164
ag165
ag166
ag167
ag168
ag169
ag170
ag162
ag171
ag173
ag175
ag176
ag177
ag178
ag179
ag145
ag147
ag172
ag25
ag113
ag112
ag110
ag109
ag108
ag104
ag103
ag102
ag100
ag99
ag98
ag134
ag131
ag130
ag122
ag118
ag92
ag64
ag54
ag82
ag74
ag204
ag28
ag180
ag161
ag187
ag184
ag209
ag210
ag211
ag212
ag48
ag213
ag214
ag215
ag207
ag216
ag218
ag219
ag220
ag221
ag222
ag223
ag52
ag224
ag225
ag217
ag206
ag205
ag185
ag208
ag182
ag42
ag139
ag160
ag159
ag140
ag141
ag32
ag10
ag7
ag5
ag8
ag146
ag29
ag149
ag150
ag151
ag152
ag153
ag154
ag155
ag156
ag157
ag158
ag181
ag50
ag12
atp251
sI10
(S'16:1_t_g_TopFoods'
p252
(lp253
g13
ag148
ag37
ag39
ag56
ag99
ag38
ag83
ag84
ag51
ag85
ag30
ag86
ag49
ag87
ag88
ag81
ag89
ag70
ag90
ag79
ag72
ag71
ag61
ag69
ag27
ag55
ag59
ag60
ag80
ag77
ag78
ag199
ag188
ag189
ag190
ag191
ag192
ag193
ag194
ag195
ag196
ag197
ag198
ag200
ag62
ag201
ag137
ag203
ag183
ag138
ag120
ag136
ag73
ag23
ag75
ag76
ag58
ag65
ag63
ag101
ag127
ag44
ag115
ag105
ag114
ag96
ag97
ag26
ag16
ag46
ag31
ag33
ag9
ag34
ag95
ag19
ag20
ag24
ag6
ag35
ag111
ag40
ag21
ag18
ag135
ag22
ag133
ag132
ag186
ag66
ag67
ag68
ag15
ag91
ag94
ag116
ag4
ag119
ag93
ag121
ag3
ag123
ag124
ag125
ag117
ag126
ag128
ag41
ag129
ag11
ag17
ag187
ag226
ag185
ag43
ag144
ag143
ag53
ag142
ag174
ag57
ag202
ag163
ag164
ag165
ag166
ag167
ag14
ag168
ag169
ag170
ag162
ag171
ag173
ag175
ag176
ag177
ag178
ag179
ag145
ag147
ag36
ag98
ag113
ag112
ag110
ag109
ag108
ag107
ag106
ag104
ag103
ag102
ag100
ag134
ag25
ag131
ag130
ag122
ag118
ag92
ag64
ag54
ag82
ag74
ag204
ag28
ag180
ag172
ag161
ag218
ag208
ag209
ag210
ag211
ag212
ag48
ag213
ag214
ag215
ag207
ag216
ag219
ag42
ag220
ag221
ag47
ag222
ag223
ag52
ag224
ag225
ag217
ag206
ag205
ag184
ag182
ag139
ag50
ag160
ag159
ag140
ag141
ag32
ag10
ag7
ag5
ag8
ag146
ag29
ag149
ag150
ag151
ag45
ag152
ag153
ag154
ag155
ag156
ag157
ag158
ag181
ag12
atp254
sI11
(S'16:1_undifferentiated_g_TopFoods'
p255
(lp256
g140
ag66
ag65
ag14
ag6
ag115
ag121
ag9
ag35
ag90
ag12
ag94
ag177
ag114
ag71
ag42
ag13
ag91
ag178
ag60
ag176
ag93
ag55
ag148
ag68
ag26
ag56
ag39
ag119
ag124
ag61
ag62
ag175
ag150
ag34
ag29
ag63
ag37
ag141
ag59
ag123
ag15
ag67
ag33
ag180
ag27
ag31
ag69
ag22
ag58
ag18
ag127
ag201
ag105
ag202
ag164
ag142
ag144
ag106
ag45
ag161
ag133
ag196
ag146
ag151
ag21
ag169
ag152
ag16
ag23
ag179
ag145
ag25
ag28
ag212
ag149
ag101
ag24
ag160
ag99
ag3
ag54
ag92
ag143
ag162
ag189
ag38
ag118
ag100
ag103
ag51
ag166
ag41
ag197
ag204
ag36
ag30
ag131
ag181
ag194
ag134
ag147
ag183
ag75
ag130
ag157
ag109
ag44
ag112
ag40
ag108
ag137
ag57
ag170
ag47
ag113
ag138
ag107
ag132
ag198
ag110
ag173
ag193
ag213
ag153
ag88
ag195
ag215
ag190
ag207
ag117
ag210
ag74
ag84
ag83
ag46
ag43
ag85
ag80
ag82
ag104
ag49
ag226
ag120
ag192
ag186
ag77
ag188
ag191
ag203
ag217
ag50
ag224
ag122
ag225
ag64
ag79
ag135
ag206
ag97
ag205
ag185
ag17
ag11
ag129
ag96
ag223
ag52
ag126
ag209
ag211
ag182
ag48
ag111
ag214
ag216
ag218
ag20
ag219
ag19
ag95
ag220
ag102
ag221
ag98
ag222
ag128
ag139
ag187
ag125
ag8
ag154
ag155
ag156
ag72
ag70
ag208
ag89
ag136
ag87
ag86
ag73
ag158
ag76
ag78
ag5
ag7
ag10
ag165
ag81
ag53
ag174
ag163
ag4
ag116
ag167
ag32
ag168
ag199
ag171
ag200
ag172
ag159
ag184
atp257
sI12
(S'17:0_g_TopFoods'
p258
(lp259
g6
ag11
ag13
ag46
ag140
ag152
ag35
ag29
ag16
ag144
ag45
ag106
ag39
ag121
ag149
ag179
ag31
ag37
ag163
ag42
ag3
ag71
ag24
ag43
ag53
ag148
ag56
ag27
ag58
ag38
ag41
ag59
ag23
ag107
ag99
ag36
ag187
ag47
ag49
ag186
ag75
ag51
ag90
ag201
ag70
ag72
ag69
ag61
ag200
ag55
ag199
ag198
ag197
ag196
ag89
ag87
ag88
ag138
ag76
ag77
ag78
ag73
ag136
ag80
ag120
ag81
ag86
ag30
ag83
ag84
ag85
ag183
ag203
ag137
ag79
ag68
ag60
ag26
ag22
ag135
ag127
ag44
ag115
ag105
ag114
ag96
ag97
ag101
ag62
ag33
ag34
ag95
ag19
ag20
ag111
ag40
ag21
ag18
ag133
ag132
ag17
ag129
ag63
ag9
ag65
ag66
ag67
ag194
ag15
ag91
ag94
ag116
ag4
ag119
ag93
ag123
ag124
ag125
ag117
ag126
ag128
ag195
ag226
ag193
ag168
ag145
ag143
ag142
ag174
ag57
ag202
ag164
ag165
ag166
ag167
ag169
ag160
ag170
ag162
ag171
ag173
ag175
ag176
ag177
ag178
ag180
ag172
ag14
ag147
ag25
ag28
ag113
ag112
ag110
ag109
ag108
ag104
ag103
ag102
ag100
ag98
ag134
ag131
ag130
ag122
ag118
ag92
ag64
ag54
ag82
ag74
ag204
ag161
ag159
ag192
ag223
ag213
ag214
ag215
ag207
ag216
ag218
ag219
ag220
ag221
ag222
ag52
ag141
ag224
ag225
ag217
ag206
ag205
ag185
ag188
ag189
ag190
ag191
ag48
ag212
ag211
ag210
ag32
ag10
ag7
ag5
ag8
ag146
ag150
ag151
ag153
ag154
ag155
ag156
ag157
ag158
ag181
ag50
ag139
ag182
ag184
ag208
ag209
ag12
atp260
sI13
(S'17:1_g_TopFoods'
p261
(lp262
g11
ag121
ag13
ag163
ag106
ag149
ag148
ag39
ag90
ag37
ag218
ag27
ag56
ag24
ag43
ag38
ag107
ag85
ag88
ag84
ag83
ag86
ag30
ag87
ag70
ag89
ag51
ag72
ag71
ag61
ag69
ag55
ag59
ag49
ag78
ag81
ag80
ag190
ag191
ag192
ag193
ag194
ag195
ag196
ag197
ag198
ag199
ag200
ag201
ag137
ag203
ag183
ag138
ag120
ag136
ag73
ag23
ag75
ag76
ag77
ag58
ag79
ag60
ag66
ag62
ag63
ag127
ag44
ag115
ag105
ag114
ag96
ag97
ag26
ag16
ag46
ag31
ag101
ag33
ag34
ag95
ag19
ag20
ag6
ag35
ag111
ag40
ag21
ag18
ag135
ag22
ag133
ag119
ag9
ag65
ag188
ag67
ag68
ag15
ag91
ag94
ag116
ag4
ag93
ag132
ag3
ag123
ag124
ag125
ag117
ag126
ag128
ag41
ag129
ag17
ag189
ag226
ag187
ag14
ag144
ag143
ag53
ag142
ag174
ag57
ag202
ag164
ag165
ag166
ag167
ag168
ag169
ag170
ag162
ag171
ag173
ag175
ag176
ag177
ag178
ag179
ag180
ag145
ag147
ag161
ag25
ag113
ag112
ag110
ag109
ag108
ag104
ag103
ag102
ag100
ag99
ag98
ag134
ag131
ag130
ag122
ag118
ag92
ag64
ag54
ag82
ag74
ag204
ag28
ag172
ag42
ag186
ag208
ag210
ag211
ag212
ag48
ag213
ag214
ag215
ag207
ag216
ag219
ag220
ag221
ag47
ag222
ag223
ag52
ag224
ag225
ag217
ag206
ag205
ag36
ag185
ag209
ag184
ag160
ag182
ag159
ag140
ag141
ag32
ag10
ag7
ag5
ag8
ag146
ag29
ag150
ag151
ag45
ag152
ag153
ag154
ag155
ag156
ag157
ag158
ag181
ag50
ag139
ag12
atp263
sI14
(S'18:0_g_TopFoods'
p264
(lp265
g15
ag14
ag6
ag9
ag119
ag67
ag93
ag180
ag65
ag5
ag29
ag91
ag116
ag45
ag12
ag4
ag66
ag13
ag3
ag35
ag140
ag123
ag150
ag121
ag144
ag7
ag159
ag8
ag94
ag149
ag172
ag124
ag161
ag160
ag179
ag106
ag141
ag10
ag68
ag166
ag151
ag152
ag39
ag133
ag60
ag142
ag202
ag164
ag148
ag16
ag59
ag61
ag44
ag42
ag62
ag105
ag71
ag114
ag177
ag55
ag31
ag19
ag20
ag26
ag127
ag22
ag18
ag169
ag145
ag69
ag17
ag178
ag56
ag132
ag63
ag163
ag115
ag58
ag34
ag54
ag21
ag27
ag24
ag33
ag176
ag43
ag37
ag206
ag143
ag162
ag175
ag46
ag112
ag167
ag36
ag183
ag137
ag92
ag113
ag101
ag224
ag135
ag170
ag99
ag168
ag103
ag90
ag118
ag57
ag25
ag38
ag28
ag53
ag47
ag41
ag189
ag146
ag64
ag107
ag80
ag130
ag75
ag110
ag165
ag203
ag173
ag117
ag174
ag199
ag225
ag30
ag102
ag100
ag218
ag40
ag147
ag104
ag98
ag212
ag109
ag171
ag186
ag79
ag108
ag221
ag136
ag81
ag49
ag23
ag204
ag153
ag209
ag194
ag32
ag85
ag213
ag87
ag220
ag187
ag139
ag84
ag76
ag74
ag52
ag131
ag211
ag51
ag88
ag129
ag134
ag214
ag182
ag156
ag157
ag158
ag50
ag226
ag196
ag185
ag201
ag184
ag191
ag89
ag193
ag72
ag11
ag200
ag181
ag190
ag154
ag217
ag210
ag120
ag197
ag208
ag83
ag192
ag195
ag188
ag207
ag215
ag219
ag77
ag82
ag138
ag126
ag111
ag198
ag95
ag78
ag122
ag73
ag97
ag96
ag86
ag223
ag70
ag222
ag216
ag128
ag125
ag155
ag48
ag205
atp266
sI15
(S'18:1_11_t_18:1t_n_7_g_TopFoods'
p267
(lp268
g38
ag36
ag79
ag80
ag81
ag49
ag30
ag83
ag84
ag85
ag86
ag87
ag88
ag89
ag51
ag90
ag70
ag72
ag71
ag61
ag69
ag56
ag27
ag55
ag59
ag60
ag58
ag78
ag77
ag76
ag197
ag186
ag187
ag188
ag189
ag190
ag191
ag192
ag193
ag194
ag195
ag196
ag198
ag75
ag199
ag200
ag201
ag137
ag203
ag183
ag138
ag120
ag136
ag73
ag23
ag62
ag63
ag9
ag34
ag115
ag105
ag114
ag96
ag97
ag26
ag16
ag46
ag31
ag101
ag33
ag95
ag127
ag19
ag13
ag20
ag24
ag6
ag35
ag111
ag39
ag40
ag21
ag18
ag44
ag135
ag65
ag3
ag66
ag67
ag68
ag15
ag91
ag94
ag116
ag4
ag119
ag93
ag121
ag123
ag22
ag124
ag125
ag117
ag126
ag128
ag41
ag129
ag11
ag17
ag132
ag133
ag185
ag226
ag205
ag166
ag145
ag144
ag143
ag53
ag142
ag174
ag57
ag202
ag163
ag164
ag165
ag43
ag147
ag167
ag168
ag169
ag170
ag162
ag171
ag173
ag37
ag175
ag176
ag177
ag14
ag25
ag179
ag99
ag113
ag112
ag110
ag109
ag108
ag107
ag106
ag104
ag103
ag102
ag100
ag98
ag28
ag134
ag131
ag130
ag122
ag118
ag92
ag64
ag54
ag82
ag74
ag204
ag178
ag180
ag206
ag207
ag182
ag184
ag208
ag209
ag210
ag211
ag212
ag48
ag213
ag214
ag215
ag216
ag50
ag218
ag219
ag220
ag221
ag47
ag222
ag223
ag52
ag224
ag225
ag217
ag139
ag181
ag172
ag146
ag161
ag42
ag160
ag159
ag140
ag141
ag32
ag10
ag7
ag5
ag8
ag29
ag158
ag148
ag149
ag150
ag151
ag45
ag152
ag153
ag154
ag155
ag156
ag157
ag12
atp269
sI16
(S'18:1_c_g_TopFoods'
p270
(lp271
g148
ag6
ag45
ag106
ag3
ag133
ag13
ag39
ag31
ag71
ag127
ag56
ag38
ag36
ag16
ag41
ag135
ag44
ag22
ag43
ag27
ag37
ag107
ag46
ag24
ag23
ag11
ag186
ag47
ag187
ag49
ag84
ag83
ag30
ag85
ag193
ag86
ag87
ag80
ag88
ag89
ag51
ag191
ag90
ag70
ag72
ag81
ag75
ag79
ag203
ag195
ag196
ag197
ag198
ag199
ag200
ag201
ag137
ag192
ag78
ag183
ag61
ag120
ag136
ag73
ag194
ag76
ag77
ag138
ag65
ag69
ag101
ag129
ag17
ag132
ag115
ag105
ag114
ag96
ag97
ag26
ag33
ag126
ag34
ag95
ag19
ag20
ag35
ag111
ag40
ag21
ag18
ag128
ag117
ag55
ag68
ag59
ag60
ag58
ag62
ag63
ag9
ag189
ag66
ag67
ag15
ag125
ag91
ag94
ag116
ag4
ag119
ag93
ag121
ag123
ag124
ag190
ag226
ag188
ag14
ag144
ag143
ag53
ag142
ag174
ag57
ag202
ag163
ag164
ag165
ag166
ag167
ag168
ag169
ag170
ag162
ag171
ag173
ag175
ag176
ag177
ag178
ag179
ag145
ag147
ag185
ag25
ag113
ag112
ag110
ag109
ag108
ag104
ag103
ag102
ag100
ag99
ag98
ag134
ag131
ag130
ag122
ag118
ag92
ag64
ag54
ag82
ag74
ag204
ag28
ag180
ag172
ag161
ag42
ag208
ag209
ag210
ag211
ag212
ag48
ag213
ag214
ag215
ag207
ag216
ag218
ag219
ag220
ag221
ag222
ag223
ag52
ag224
ag225
ag217
ag206
ag205
ag184
ag182
ag139
ag29
ag160
ag159
ag140
ag141
ag32
ag10
ag7
ag5
ag8
ag146
ag149
ag50
ag150
ag151
ag152
ag153
ag154
ag155
ag156
ag157
ag158
ag181
ag12
atp272
sI17
(S'18:1_t_g_TopFoods'
p273
(lp274
g6
ag13
ag16
ag11
ag71
ag24
ag106
ag45
ag39
ag3
ag56
ag37
ag27
ag41
ag47
ag43
ag38
ag186
ag31
ag69
ag76
ag77
ag78
ag79
ag80
ag81
ag49
ag30
ag83
ag84
ag85
ag86
ag87
ag88
ag21
ag89
ag51
ag90
ag70
ag72
ag40
ag75
ag23
ag73
ag197
ag188
ag189
ag190
ag191
ag192
ag193
ag194
ag195
ag196
ag18
ag136
ag198
ag199
ag200
ag201
ag137
ag203
ag183
ag138
ag120
ag61
ag111
ag46
ag35
ag125
ag117
ag126
ag128
ag34
ag129
ag33
ag17
ag132
ag133
ag22
ag135
ag127
ag44
ag115
ag105
ag114
ag96
ag97
ag26
ag101
ag124
ag95
ag123
ag67
ag55
ag59
ag60
ag58
ag62
ag63
ag9
ag187
ag66
ag68
ag19
ag15
ag91
ag94
ag20
ag116
ag4
ag119
ag93
ag121
ag65
ag226
ag185
ag166
ag145
ag144
ag143
ag53
ag142
ag174
ag57
ag202
ag163
ag164
ag165
ag167
ag36
ag168
ag169
ag170
ag162
ag171
ag173
ag175
ag176
ag177
ag178
ag179
ag14
ag147
ag25
ag28
ag113
ag112
ag110
ag109
ag108
ag107
ag104
ag103
ag102
ag100
ag99
ag98
ag134
ag131
ag130
ag122
ag118
ag92
ag64
ag54
ag82
ag74
ag204
ag180
ag172
ag161
ag182
ag208
ag209
ag210
ag211
ag212
ag48
ag213
ag214
ag215
ag207
ag216
ag218
ag219
ag220
ag221
ag222
ag223
ag52
ag224
ag225
ag217
ag206
ag205
ag184
ag139
ag42
ag50
ag160
ag159
ag140
ag141
ag32
ag10
ag7
ag5
ag8
ag146
ag29
ag148
ag149
ag150
ag151
ag152
ag153
ag154
ag155
ag156
ag157
ag158
ag181
ag12
atp275
sI18
(S'18:1_undifferentiated_g_TopFoods'
p276
(lp277
g67
ag121
ag94
ag141
ag123
ag140
ag15
ag159
ag119
ag124
ag93
ag148
ag14
ag166
ag29
ag42
ag66
ag6
ag144
ag116
ag150
ag149
ag160
ag65
ag45
ag161
ag9
ag26
ag68
ag4
ag35
ag114
ag91
ag97
ag95
ag90
ag172
ag105
ag179
ag180
ag106
ag33
ag3
ag12
ag133
ag13
ag142
ag151
ag202
ag164
ag169
ag39
ag31
ag71
ag177
ag5
ag152
ag92
ag60
ag145
ag127
ag115
ag55
ag34
ag143
ag7
ag8
ag64
ag162
ag146
ag112
ag56
ag59
ag61
ag99
ag163
ag113
ag10
ag103
ag176
ag16
ag25
ag118
ag62
ag38
ag28
ag36
ag101
ag19
ag20
ag41
ag135
ag63
ag18
ag54
ag69
ag44
ag22
ag178
ag43
ag27
ag206
ag53
ag17
ag37
ag175
ag130
ag58
ag110
ag183
ag132
ag21
ag107
ag137
ag57
ag30
ag102
ag215
ag194
ag24
ag46
ag147
ag100
ag109
ag131
ag224
ag134
ag72
ag108
ag204
ag167
ag80
ag173
ag190
ag11
ag168
ag23
ag98
ag104
ag203
ag212
ag225
ag174
ag211
ag170
ag129
ag74
ag75
ag193
ag188
ag189
ag221
ag201
ag81
ag195
ag171
ag192
ag185
ag197
ag79
ag88
ag136
ag85
ag89
ag217
ag199
ag40
ag153
ag52
ag226
ag139
ag49
ag196
ag219
ag87
ag218
ag70
ag186
ag82
ag51
ag117
ag198
ag83
ag216
ag158
ag138
ag184
ag47
ag208
ag213
ag187
ag182
ag165
ag191
ag77
ag154
ag207
ag84
ag48
ag120
ag220
ag32
ag126
ag76
ag156
ag181
ag210
ag157
ag214
ag200
ag50
ag155
ag209
ag111
ag96
ag122
ag125
ag128
ag78
ag222
ag223
ag205
ag73
ag86
atp278
sI19
(S'18:2_CLAs_g_TopFoods'
p279
(lp280
g6
ag13
ag16
ag106
ag39
ag56
ag45
ag37
ag38
ag148
ag27
ag61
ag88
ag81
ag49
ag30
ag83
ag84
ag85
ag86
ag87
ag59
ag71
ag55
ag89
ag51
ag90
ag79
ag70
ag72
ag69
ag80
ag76
ag78
ag199
ag188
ag189
ag190
ag191
ag192
ag193
ag194
ag195
ag196
ag197
ag198
ag200
ag77
ag201
ag137
ag203
ag183
ag138
ag120
ag136
ag73
ag23
ag75
ag58
ag60
ag9
ag62
ag133
ag135
ag127
ag44
ag115
ag105
ag114
ag96
ag97
ag26
ag46
ag31
ag101
ag33
ag34
ag95
ag19
ag20
ag24
ag35
ag111
ag40
ag21
ag18
ag22
ag132
ag63
ag17
ag186
ag65
ag66
ag67
ag68
ag15
ag91
ag94
ag116
ag4
ag119
ag93
ag121
ag3
ag123
ag124
ag125
ag117
ag126
ag128
ag41
ag129
ag11
ag187
ag226
ag185
ag166
ag145
ag144
ag143
ag53
ag142
ag174
ag57
ag202
ag163
ag164
ag165
ag43
ag180
ag167
ag168
ag169
ag170
ag162
ag171
ag173
ag175
ag176
ag177
ag178
ag14
ag147
ag25
ag28
ag113
ag112
ag110
ag109
ag108
ag107
ag104
ag103
ag102
ag100
ag99
ag98
ag134
ag131
ag130
ag122
ag118
ag92
ag64
ag54
ag82
ag74
ag204
ag179
ag172
ag36
ag218
ag208
ag209
ag210
ag211
ag212
ag48
ag213
ag214
ag215
ag207
ag216
ag219
ag161
ag220
ag221
ag47
ag222
ag223
ag52
ag224
ag225
ag217
ag206
ag205
ag184
ag182
ag139
ag50
ag42
ag160
ag159
ag140
ag141
ag32
ag10
ag7
ag5
ag8
ag146
ag29
ag149
ag150
ag151
ag152
ag153
ag154
ag155
ag156
ag157
ag158
ag181
ag12
atp281
sI20
(S'18:2_i_g_TopFoods'
p282
(lp283
g6
ag24
ag38
ag89
ag79
ag80
ag81
ag49
ag30
ag83
ag84
ag85
ag86
ag87
ag88
ag90
ag51
ag77
ag70
ag72
ag71
ag61
ag69
ag56
ag27
ag55
ag59
ag60
ag78
ag75
ag76
ag197
ag186
ag187
ag188
ag189
ag190
ag191
ag192
ag193
ag194
ag195
ag196
ag198
ag62
ag199
ag200
ag201
ag137
ag203
ag183
ag138
ag120
ag136
ag73
ag23
ag58
ag63
ag36
ag101
ag127
ag44
ag115
ag105
ag114
ag96
ag97
ag26
ag16
ag46
ag31
ag33
ag9
ag34
ag95
ag19
ag13
ag20
ag35
ag111
ag39
ag40
ag21
ag18
ag135
ag22
ag133
ag132
ag65
ag66
ag67
ag68
ag15
ag91
ag94
ag116
ag4
ag119
ag93
ag121
ag3
ag123
ag124
ag125
ag117
ag126
ag128
ag41
ag129
ag11
ag17
ag185
ag226
ag205
ag166
ag145
ag144
ag143
ag53
ag142
ag174
ag57
ag202
ag163
ag164
ag165
ag43
ag147
ag167
ag168
ag169
ag170
ag162
ag171
ag173
ag37
ag175
ag176
ag177
ag14
ag25
ag179
ag99
ag113
ag112
ag110
ag109
ag108
ag107
ag106
ag104
ag103
ag102
ag100
ag98
ag28
ag134
ag131
ag130
ag122
ag118
ag92
ag64
ag54
ag82
ag74
ag204
ag178
ag180
ag206
ag207
ag182
ag184
ag208
ag209
ag210
ag211
ag212
ag48
ag213
ag214
ag215
ag216
ag50
ag218
ag219
ag220
ag221
ag47
ag222
ag223
ag52
ag224
ag225
ag217
ag139
ag181
ag172
ag146
ag161
ag42
ag160
ag159
ag140
ag141
ag32
ag10
ag7
ag5
ag8
ag29
ag158
ag148
ag149
ag150
ag151
ag45
ag152
ag153
ag154
ag155
ag156
ag157
ag12
atp284
sI21
(S'18:2_n_6_c_Linoleic_acid_omega_6c_g_TopFoods'
p285
(lp286
g161
ag45
ag106
ag42
ag148
ag152
ag16
ag36
ag6
ag3
ag39
ag38
ag71
ag135
ag107
ag43
ag56
ag13
ag59
ag41
ag27
ag30
ag37
ag186
ag187
ag24
ag47
ag23
ag81
ag111
ag61
ag83
ag84
ag72
ag85
ag40
ag70
ag86
ag87
ag88
ag89
ag51
ag21
ag90
ag49
ag20
ag80
ag79
ag193
ag194
ag18
ag195
ag196
ag197
ag198
ag199
ag200
ag201
ag137
ag203
ag183
ag138
ag120
ag136
ag73
ag75
ag76
ag77
ag69
ag78
ag60
ag55
ag114
ag11
ag17
ag132
ag133
ag22
ag127
ag44
ag115
ag105
ag96
ag128
ag97
ag26
ag46
ag31
ag101
ag33
ag34
ag95
ag19
ag129
ag126
ag58
ag91
ag62
ag63
ag9
ag65
ag191
ag66
ag67
ag68
ag15
ag94
ag117
ag116
ag4
ag119
ag93
ag121
ag35
ag123
ag124
ag125
ag192
ag226
ag190
ag180
ag145
ag144
ag143
ag53
ag142
ag174
ag57
ag202
ag163
ag164
ag165
ag166
ag167
ag168
ag169
ag170
ag162
ag171
ag173
ag175
ag176
ag177
ag178
ag14
ag147
ag25
ag98
ag113
ag112
ag110
ag109
ag108
ag104
ag103
ag102
ag100
ag99
ag134
ag28
ag131
ag130
ag122
ag118
ag92
ag64
ag54
ag82
ag74
ag204
ag179
ag172
ag189
ag160
ag210
ag211
ag212
ag48
ag213
ag214
ag215
ag207
ag216
ag218
ag219
ag220
ag221
ag222
ag223
ag52
ag224
ag225
ag217
ag206
ag205
ag185
ag188
ag209
ag208
ag184
ag149
ag159
ag140
ag141
ag32
ag10
ag7
ag5
ag8
ag146
ag29
ag150
ag182
ag151
ag153
ag154
ag155
ag156
ag157
ag158
ag181
ag50
ag139
ag12
atp287
sI22
(S'18:2_t_not_further_defined_g_TopFoods'
p288
(lp289
g13
ag106
ag16
ag45
ag39
ag37
ag3
ag41
ag56
ag36
ag148
ag43
ag38
ag107
ag27
ag88
ag30
ag59
ag83
ag84
ag85
ag86
ag55
ag87
ag71
ag61
ag89
ag51
ag69
ag90
ag81
ag70
ag72
ag49
ag78
ag80
ag201
ag190
ag191
ag192
ag193
ag194
ag195
ag196
ag197
ag198
ag199
ag200
ag137
ag79
ag203
ag183
ag138
ag120
ag136
ag73
ag23
ag75
ag76
ag77
ag58
ag60
ag66
ag62
ag63
ag127
ag44
ag115
ag105
ag114
ag96
ag97
ag26
ag46
ag31
ag101
ag33
ag34
ag95
ag19
ag20
ag24
ag6
ag35
ag111
ag40
ag21
ag18
ag135
ag22
ag133
ag119
ag9
ag65
ag188
ag67
ag68
ag15
ag91
ag94
ag116
ag4
ag93
ag132
ag121
ag123
ag124
ag125
ag117
ag126
ag128
ag129
ag11
ag17
ag189
ag226
ag187
ag167
ag144
ag143
ag53
ag142
ag174
ag57
ag202
ag163
ag164
ag165
ag166
ag168
ag186
ag169
ag170
ag162
ag171
ag173
ag175
ag176
ag177
ag178
ag179
ag180
ag145
ag14
ag147
ag25
ag113
ag112
ag110
ag109
ag108
ag104
ag103
ag102
ag100
ag99
ag98
ag134
ag131
ag130
ag122
ag118
ag92
ag64
ag54
ag82
ag74
ag204
ag28
ag172
ag161
ag42
ag208
ag210
ag211
ag212
ag48
ag213
ag214
ag215
ag207
ag216
ag218
ag219
ag220
ag221
ag47
ag222
ag223
ag52
ag224
ag225
ag217
ag206
ag205
ag185
ag209
ag184
ag160
ag182
ag159
ag140
ag141
ag32
ag10
ag7
ag5
ag8
ag146
ag29
ag149
ag150
ag151
ag152
ag153
ag154
ag155
ag156
ag157
ag158
ag181
ag50
ag139
ag12
atp290
sI23
(S'18:2_t_t_g_TopFoods'
p291
(lp292
g71
ag38
ag89
ag79
ag80
ag81
ag49
ag30
ag83
ag84
ag85
ag86
ag87
ag88
ag51
ag36
ag90
ag70
ag72
ag61
ag69
ag56
ag27
ag55
ag59
ag60
ag58
ag78
ag77
ag76
ag197
ag186
ag187
ag188
ag189
ag190
ag191
ag192
ag193
ag194
ag195
ag196
ag198
ag75
ag199
ag200
ag201
ag137
ag203
ag183
ag138
ag120
ag136
ag73
ag23
ag62
ag63
ag9
ag34
ag115
ag105
ag114
ag96
ag97
ag26
ag16
ag46
ag31
ag101
ag33
ag95
ag127
ag19
ag13
ag20
ag24
ag6
ag35
ag111
ag39
ag40
ag21
ag18
ag44
ag135
ag65
ag3
ag66
ag67
ag68
ag15
ag91
ag94
ag116
ag4
ag119
ag93
ag121
ag123
ag22
ag124
ag125
ag117
ag126
ag128
ag41
ag129
ag11
ag17
ag132
ag133
ag185
ag226
ag205
ag166
ag145
ag144
ag143
ag53
ag142
ag174
ag57
ag202
ag163
ag164
ag165
ag43
ag147
ag167
ag168
ag169
ag170
ag162
ag171
ag173
ag37
ag175
ag176
ag177
ag14
ag25
ag179
ag99
ag113
ag112
ag110
ag109
ag108
ag107
ag106
ag104
ag103
ag102
ag100
ag98
ag28
ag134
ag131
ag130
ag122
ag118
ag92
ag64
ag54
ag82
ag74
ag204
ag178
ag180
ag206
ag207
ag182
ag184
ag208
ag209
ag210
ag211
ag212
ag48
ag213
ag214
ag215
ag216
ag50
ag218
ag219
ag220
ag221
ag47
ag222
ag223
ag52
ag224
ag225
ag217
ag139
ag181
ag172
ag146
ag161
ag42
ag160
ag159
ag140
ag141
ag32
ag10
ag7
ag5
ag8
ag29
ag158
ag148
ag149
ag150
ag151
ag45
ag152
ag153
ag154
ag155
ag156
ag157
ag12
atp293
sI24
(S'18:2_undifferentiated_g_TopFoods'
p294
(lp295
g116
ag119
ag91
ag172
ag161
ag124
ag160
ag123
ag133
ag180
ag151
ag149
ag150
ag45
ag159
ag94
ag166
ag68
ag106
ag42
ag148
ag144
ag202
ag164
ag121
ag93
ag141
ag29
ag31
ag127
ag105
ag179
ag152
ag15
ag145
ag114
ag142
ag14
ag67
ag35
ag95
ag33
ag26
ag64
ag143
ag16
ag162
ag36
ag163
ag92
ag112
ag54
ag169
ag60
ag6
ag113
ag97
ag3
ag90
ag4
ag39
ag65
ag99
ag146
ag38
ag71
ag140
ag135
ag9
ag34
ag110
ag183
ag55
ag102
ag107
ag147
ag25
ag103
ag66
ag13
ag118
ag53
ag28
ag109
ag43
ag61
ag100
ag165
ag132
ag56
ag62
ag44
ag5
ag108
ag22
ag11
ag57
ag131
ag134
ag63
ag204
ag17
ag168
ag59
ag69
ag12
ag173
ag98
ag7
ag104
ag8
ag41
ag177
ag194
ag167
ag115
ag80
ag170
ag27
ag130
ag101
ag174
ag211
ag75
ag79
ag10
ag185
ag136
ag58
ag74
ag48
ag199
ag89
ag137
ag171
ag209
ag30
ag87
ag139
ag221
ag81
ag19
ag20
ag212
ag153
ag154
ag207
ag226
ag178
ag193
ag217
ag88
ag176
ag195
ag189
ag72
ag84
ag129
ag37
ag192
ag203
ag18
ag156
ag120
ag213
ag82
ag224
ag219
ag117
ag52
ag218
ag197
ag51
ag220
ag190
ag46
ag215
ag225
ag186
ag187
ag76
ag138
ag83
ag50
ag21
ag24
ag214
ag85
ag184
ag188
ag157
ag70
ag200
ag47
ag210
ag191
ag208
ag201
ag77
ag198
ag216
ag158
ag49
ag23
ag175
ag182
ag206
ag196
ag40
ag126
ag32
ag181
ag73
ag122
ag128
ag78
ag223
ag205
ag111
ag155
ag222
ag125
ag86
ag96
atp296
sI25
(S'18:3_n_3_ccc_alpha_Linolenic_acid_omega_3_ALA_g_TopFoods'
p297
(lp298
g152
ag161
ag106
ag135
ag44
ag16
ag31
ag127
ag41
ag6
ag133
ag43
ag22
ag45
ag160
ag90
ag13
ag23
ag107
ag110
ag38
ag71
ag36
ag37
ag39
ag56
ag30
ag187
ag3
ag186
ag27
ag46
ag58
ag47
ag59
ag24
ag148
ag11
ag73
ag72
ag197
ag89
ag198
ag51
ag199
ag70
ag200
ag87
ag194
ag138
ag193
ag183
ag203
ag137
ag88
ag86
ag61
ag136
ag75
ag76
ag195
ag77
ag78
ag79
ag201
ag85
ag81
ag49
ag120
ag196
ag83
ag84
ag80
ag66
ag69
ag128
ag17
ag132
ag115
ag105
ag114
ag96
ag97
ag26
ag101
ag33
ag34
ag95
ag19
ag20
ag35
ag111
ag40
ag21
ag18
ag129
ag126
ag55
ag117
ag60
ag62
ag63
ag9
ag65
ag191
ag67
ag68
ag15
ag91
ag94
ag116
ag4
ag119
ag93
ag121
ag123
ag124
ag125
ag192
ag226
ag190
ag189
ag144
ag143
ag53
ag142
ag174
ag57
ag202
ag163
ag164
ag165
ag166
ag167
ag168
ag169
ag170
ag162
ag171
ag173
ag175
ag176
ag177
ag178
ag179
ag145
ag14
ag147
ag134
ag113
ag112
ag109
ag108
ag104
ag103
ag102
ag100
ag99
ag98
ag131
ag25
ag130
ag122
ag118
ag92
ag64
ag54
ag82
ag74
ag204
ag28
ag180
ag172
ag42
ag220
ag211
ag212
ag48
ag213
ag214
ag215
ag207
ag216
ag218
ag219
ag221
ag209
ag222
ag223
ag52
ag224
ag225
ag217
ag206
ag205
ag185
ag188
ag210
ag208
ag159
ag150
ag140
ag141
ag32
ag10
ag7
ag5
ag8
ag146
ag29
ag149
ag151
ag184
ag153
ag154
ag155
ag156
ag157
ag158
ag181
ag50
ag139
ag182
ag12
atp299
sI26
(S'18:3_n_6_ccc_Gamma_linolenic_acid_omega_6_g_TopFoods'
p300
(lp301
g11
ag160
ag135
ag90
ag31
ag71
ag39
ag13
ag56
ag59
ag106
ag37
ag58
ag43
ag86
ag30
ag60
ag83
ag81
ag84
ag85
ag49
ag55
ag87
ag88
ag89
ag51
ag70
ag72
ag61
ag69
ag27
ag80
ag38
ag79
ag199
ag188
ag189
ag190
ag191
ag192
ag193
ag194
ag195
ag196
ag197
ag198
ag200
ag78
ag201
ag137
ag203
ag183
ag138
ag120
ag136
ag73
ag23
ag75
ag77
ag76
ag65
ag62
ag63
ag127
ag44
ag115
ag105
ag114
ag96
ag97
ag26
ag16
ag46
ag101
ag33
ag34
ag95
ag19
ag20
ag24
ag6
ag35
ag111
ag40
ag21
ag18
ag22
ag133
ag132
ag119
ag9
ag186
ag66
ag67
ag68
ag15
ag91
ag94
ag116
ag4
ag93
ag17
ag121
ag3
ag123
ag124
ag125
ag117
ag126
ag128
ag41
ag129
ag187
ag226
ag185
ag166
ag145
ag144
ag143
ag53
ag142
ag174
ag57
ag202
ag163
ag164
ag165
ag167
ag172
ag168
ag169
ag170
ag162
ag171
ag173
ag175
ag176
ag177
ag178
ag179
ag14
ag147
ag25
ag28
ag113
ag112
ag110
ag109
ag108
ag107
ag104
ag103
ag102
ag100
ag99
ag98
ag134
ag131
ag130
ag122
ag118
ag92
ag64
ag54
ag82
ag74
ag204
ag180
ag161
ag36
ag218
ag208
ag209
ag210
ag211
ag212
ag48
ag213
ag214
ag215
ag207
ag216
ag219
ag42
ag220
ag221
ag47
ag222
ag223
ag52
ag224
ag225
ag217
ag206
ag205
ag184
ag182
ag139
ag50
ag159
ag140
ag141
ag32
ag10
ag7
ag5
ag8
ag146
ag29
ag148
ag149
ag150
ag151
ag45
ag152
ag153
ag154
ag155
ag156
ag157
ag158
ag181
ag12
atp302
sI27
(S'18:3_undifferentiated_g_TopFoods'
p303
(lp304
g179
ag152
ag172
ag68
ag91
ag105
ag161
ag106
ag135
ag124
ag202
ag14
ag164
ag132
ag6
ag65
ag34
ag159
ag66
ag9
ag173
ag121
ag17
ag44
ag16
ag145
ag31
ag127
ag169
ag163
ag211
ag150
ag41
ag117
ag129
ag119
ag15
ag42
ag171
ag133
ag168
ag142
ag64
ag174
ag12
ag53
ag140
ag93
ag170
ag67
ag137
ag26
ag146
ag160
ag183
ag43
ag22
ag33
ag157
ag185
ag90
ag101
ag45
ag54
ag13
ag75
ag143
ag92
ag176
ag151
ag147
ag131
ag35
ag162
ag134
ag109
ag89
ag57
ag141
ag11
ag114
ag23
ag25
ag108
ag19
ag20
ag102
ag71
ag28
ag60
ag107
ag220
ag130
ag110
ag112
ag99
ag203
ag217
ag218
ag29
ag38
ag149
ag210
ag88
ag113
ag201
ag55
ag104
ag39
ag196
ag79
ag36
ag136
ag37
ag103
ag118
ag144
ag98
ag56
ag100
ag165
ag139
ag212
ag200
ag158
ag61
ag62
ag87
ag18
ag51
ag167
ag120
ag85
ag204
ag30
ag83
ag48
ag63
ag69
ag187
ag138
ag3
ag208
ag197
ag177
ag191
ag84
ag175
ag186
ag27
ag21
ag213
ag59
ag156
ag74
ag76
ag46
ag50
ag194
ag198
ag47
ag154
ag219
ag77
ag214
ag24
ag182
ag153
ag58
ag82
ag148
ag49
ag181
ag166
ag207
ag221
ag195
ag40
ag199
ag193
ag184
ag192
ag126
ag95
ag205
ag122
ag223
ag224
ag222
ag188
ag189
ag190
ag52
ag97
ag96
ag111
ag206
ag216
ag225
ag180
ag115
ag215
ag70
ag209
ag86
ag81
ag80
ag155
ag94
ag116
ag4
ag78
ag73
ag123
ag125
ag8
ag128
ag5
ag7
ag10
ag32
ag72
ag178
ag226
atp305
sI28
(S'18:3i_g_TopFoods'
p306
(lp307
g38
ag36
ag79
ag80
ag81
ag49
ag30
ag83
ag84
ag85
ag86
ag87
ag88
ag89
ag51
ag90
ag70
ag72
ag71
ag61
ag69
ag56
ag27
ag55
ag59
ag60
ag58
ag78
ag77
ag76
ag197
ag186
ag187
ag188
ag189
ag190
ag191
ag192
ag193
ag194
ag195
ag196
ag198
ag75
ag199
ag200
ag201
ag137
ag203
ag183
ag138
ag120
ag136
ag73
ag23
ag62
ag63
ag9
ag34
ag115
ag105
ag114
ag96
ag97
ag26
ag16
ag46
ag31
ag101
ag33
ag95
ag127
ag19
ag13
ag20
ag24
ag6
ag35
ag111
ag39
ag40
ag21
ag18
ag44
ag135
ag65
ag3
ag66
ag67
ag68
ag15
ag91
ag94
ag116
ag4
ag119
ag93
ag121
ag123
ag22
ag124
ag125
ag117
ag126
ag128
ag41
ag129
ag11
ag17
ag132
ag133
ag185
ag226
ag205
ag166
ag145
ag144
ag143
ag53
ag142
ag174
ag57
ag202
ag163
ag164
ag165
ag43
ag147
ag167
ag168
ag169
ag170
ag162
ag171
ag173
ag37
ag175
ag176
ag177
ag14
ag25
ag179
ag99
ag113
ag112
ag110
ag109
ag108
ag107
ag106
ag104
ag103
ag102
ag100
ag98
ag28
ag134
ag131
ag130
ag122
ag118
ag92
ag64
ag54
ag82
ag74
ag204
ag178
ag180
ag206
ag207
ag182
ag184
ag208
ag209
ag210
ag211
ag212
ag48
ag213
ag214
ag215
ag216
ag50
ag218
ag219
ag220
ag221
ag47
ag222
ag223
ag52
ag224
ag225
ag217
ag139
ag181
ag172
ag146
ag161
ag42
ag160
ag159
ag140
ag141
ag32
ag10
ag7
ag5
ag8
ag29
ag158
ag148
ag149
ag150
ag151
ag45
ag152
ag153
ag154
ag155
ag156
ag157
ag12
atp308
sI29
(S'18:4_g_TopFoods'
p309
(lp310
g65
ag66
ag37
ag177
ag178
ag176
ag149
ag13
ag56
ag85
ag84
ag70
ag83
ag87
ag88
ag89
ag51
ag90
ag86
ag61
ag72
ag71
ag49
ag69
ag27
ag55
ag59
ag60
ag58
ag30
ag81
ag63
ag201
ag189
ag190
ag191
ag192
ag193
ag194
ag195
ag196
ag197
ag198
ag199
ag200
ag137
ag80
ag203
ag183
ag138
ag120
ag136
ag73
ag23
ag75
ag76
ag77
ag78
ag79
ag62
ag38
ag9
ag127
ag115
ag105
ag114
ag96
ag97
ag26
ag16
ag46
ag31
ag101
ag33
ag34
ag95
ag19
ag20
ag24
ag6
ag35
ag111
ag39
ag40
ag21
ag18
ag44
ag135
ag187
ag22
ag67
ag68
ag15
ag91
ag94
ag116
ag4
ag119
ag93
ag121
ag3
ag123
ag124
ag125
ag117
ag126
ag128
ag41
ag129
ag11
ag17
ag132
ag133
ag188
ag226
ag186
ag165
ag14
ag145
ag144
ag143
ag53
ag142
ag174
ag57
ag202
ag163
ag164
ag166
ag161
ag43
ag167
ag168
ag169
ag170
ag162
ag171
ag173
ag175
ag179
ag180
ag147
ag25
ag28
ag204
ag113
ag112
ag110
ag109
ag108
ag107
ag106
ag104
ag103
ag102
ag100
ag99
ag98
ag134
ag131
ag130
ag122
ag118
ag92
ag64
ag54
ag82
ag74
ag172
ag42
ag185
ag219
ag209
ag210
ag211
ag212
ag48
ag213
ag214
ag215
ag207
ag216
ag218
ag220
ag160
ag221
ag47
ag222
ag223
ag52
ag224
ag225
ag217
ag206
ag205
ag36
ag208
ag184
ag182
ag139
ag159
ag140
ag141
ag32
ag10
ag7
ag5
ag8
ag146
ag29
ag148
ag150
ag151
ag45
ag152
ag153
ag154
ag155
ag156
ag157
ag158
ag181
ag50
ag12
atp311
sI30
(S'20:0_g_TopFoods'
p312
(lp313
g140
ag123
ag144
ag121
ag105
ag29
ag160
ag45
ag16
ag6
ag149
ag141
ag11
ag152
ag106
ag3
ag159
ag172
ag31
ag179
ag127
ag42
ag133
ag13
ag35
ag64
ag36
ag41
ag53
ag43
ag148
ag37
ag218
ag38
ag135
ag71
ag110
ag107
ag23
ag186
ag58
ag39
ag24
ag47
ag56
ag187
ag27
ag120
ag137
ag87
ag88
ag89
ag51
ag90
ag203
ag70
ag85
ag72
ag201
ag200
ag61
ag199
ag69
ag86
ag183
ag18
ag84
ag83
ag30
ag21
ag49
ag80
ag138
ag79
ag78
ag77
ag76
ag75
ag73
ag136
ag81
ag60
ag55
ag117
ag119
ag93
ag101
ag46
ag26
ag97
ag124
ag125
ag126
ag59
ag128
ag96
ag114
ag129
ag115
ag17
ag132
ag44
ag4
ag33
ag116
ag34
ag22
ag62
ag40
ag63
ag9
ag111
ag65
ag66
ag67
ag68
ag15
ag91
ag197
ag20
ag19
ag95
ag94
ag198
ag226
ag196
ag14
ag143
ag142
ag174
ag57
ag202
ag163
ag164
ag165
ag166
ag167
ag168
ag169
ag170
ag162
ag171
ag173
ag175
ag176
ag177
ag178
ag180
ag145
ag147
ag32
ag25
ag113
ag112
ag109
ag108
ag104
ag103
ag102
ag100
ag99
ag98
ag134
ag131
ag130
ag122
ag118
ag92
ag54
ag82
ag74
ag204
ag28
ag161
ag10
ag195
ag214
ag207
ag216
ag219
ag220
ag221
ag222
ag223
ag52
ag224
ag225
ag217
ag206
ag205
ag185
ag188
ag189
ag190
ag191
ag192
ag193
ag194
ag215
ag213
ag7
ag48
ag5
ag8
ag146
ag150
ag151
ag153
ag154
ag155
ag156
ag157
ag158
ag181
ag50
ag139
ag182
ag184
ag208
ag209
ag210
ag211
ag212
ag12
atp314
sI31
(S'20:1_g_TopFoods'
p315
(lp316
g66
ag68
ag105
ag65
ag140
ag123
ag67
ag160
ag144
ag166
ag16
ag37
ag121
ag142
ag41
ag161
ag169
ag106
ag26
ag159
ag119
ag29
ag172
ag141
ag6
ag93
ag64
ag42
ag35
ag149
ag133
ag150
ag179
ag175
ag176
ag45
ag152
ag13
ag3
ag39
ag163
ag71
ag90
ag127
ag54
ag36
ag110
ag208
ag146
ag59
ag31
ag56
ag107
ag53
ag99
ag63
ag61
ag69
ag27
ag55
ag62
ag102
ag38
ag58
ag43
ag131
ag177
ag134
ag30
ag212
ag132
ag148
ag185
ag189
ag89
ag170
ag192
ag193
ag78
ag73
ag23
ag75
ag51
ag76
ag77
ag87
ag70
ag81
ag79
ag80
ag49
ag83
ag84
ag85
ag72
ag86
ag88
ag126
ag60
ag95
ag96
ag97
ag46
ag101
ag33
ag34
ag19
ag115
ag20
ag24
ag111
ag40
ag21
ag18
ag114
ag44
ag9
ag125
ag15
ag91
ag94
ag116
ag4
ag124
ag117
ag135
ag120
ag128
ag129
ag11
ag17
ag22
ag136
ag226
ag138
ag174
ag202
ag164
ag165
ag167
ag168
ag162
ag171
ag173
ag178
ag180
ag32
ag10
ag7
ag5
ag8
ag151
ag153
ag154
ag155
ag57
ag143
ag183
ag145
ag113
ag112
ag109
ag108
ag104
ag103
ag100
ag98
ag130
ag122
ag118
ag92
ag82
ag74
ag204
ag28
ag25
ag147
ag14
ag156
ag157
ag158
ag181
ag225
ag217
ag206
ag205
ag186
ag187
ag188
ag190
ag191
ag194
ag195
ag196
ag197
ag198
ag199
ag200
ag201
ag137
ag203
ag224
ag52
ag223
ag213
ag50
ag139
ag182
ag184
ag209
ag210
ag211
ag48
ag214
ag222
ag215
ag207
ag216
ag218
ag219
ag220
ag221
ag47
ag12
atp317
sI32
(S'20:2_n_6_cc_g_TopFoods'
p318
(lp319
g160
ag105
ag39
ag16
ag58
ag106
ag37
ag71
ag41
ag56
ag13
ag179
ag27
ag59
ag45
ag148
ag107
ag36
ag43
ag84
ag88
ag83
ag85
ag86
ag87
ag38
ag89
ag51
ag90
ag70
ag30
ag61
ag69
ag55
ag72
ag78
ag49
ag137
ag191
ag192
ag193
ag194
ag195
ag196
ag197
ag198
ag199
ag200
ag201
ag203
ag81
ag183
ag138
ag120
ag136
ag73
ag23
ag75
ag76
ag77
ag79
ag80
ag60
ag66
ag62
ag63
ag135
ag127
ag44
ag115
ag114
ag96
ag97
ag26
ag46
ag31
ag101
ag33
ag34
ag95
ag19
ag20
ag24
ag6
ag35
ag111
ag40
ag21
ag18
ag22
ag133
ag132
ag119
ag9
ag65
ag189
ag67
ag68
ag15
ag91
ag94
ag116
ag4
ag93
ag17
ag121
ag3
ag123
ag124
ag125
ag117
ag126
ag128
ag129
ag11
ag190
ag226
ag188
ag14
ag144
ag143
ag53
ag142
ag174
ag57
ag202
ag163
ag164
ag165
ag166
ag167
ag168
ag169
ag170
ag162
ag171
ag173
ag175
ag176
ag177
ag178
ag180
ag145
ag147
ag161
ag25
ag113
ag112
ag110
ag109
ag108
ag104
ag103
ag102
ag100
ag99
ag98
ag134
ag131
ag130
ag122
ag118
ag92
ag64
ag54
ag82
ag74
ag204
ag28
ag172
ag42
ag187
ag209
ag211
ag212
ag48
ag213
ag214
ag215
ag207
ag216
ag218
ag219
ag220
ag221
ag47
ag222
ag223
ag52
ag224
ag225
ag217
ag206
ag205
ag185
ag186
ag210
ag208
ag159
ag184
ag140
ag141
ag32
ag10
ag7
ag5
ag8
ag146
ag29
ag149
ag150
ag151
ag152
ag153
ag154
ag155
ag156
ag157
ag158
ag181
ag50
ag139
ag182
ag12
atp320
sI33
(S'20:3_n_3_g_TopFoods'
p321
(lp322
g41
ag37
ag13
ag39
ag38
ag89
ag80
ag81
ag49
ag30
ag83
ag84
ag85
ag86
ag87
ag88
ag90
ag51
ag78
ag70
ag72
ag71
ag61
ag69
ag56
ag27
ag55
ag59
ag60
ag79
ag77
ag62
ag198
ag187
ag188
ag189
ag190
ag191
ag192
ag193
ag194
ag195
ag196
ag197
ag199
ag76
ag200
ag201
ag137
ag203
ag183
ag138
ag120
ag136
ag73
ag23
ag75
ag58
ag9
ag63
ag135
ag44
ag115
ag105
ag114
ag96
ag97
ag26
ag16
ag46
ag31
ag101
ag33
ag34
ag95
ag19
ag20
ag24
ag6
ag35
ag111
ag40
ag21
ag18
ag127
ag22
ag185
ag133
ag65
ag66
ag67
ag68
ag15
ag91
ag94
ag116
ag4
ag119
ag93
ag121
ag3
ag123
ag124
ag125
ag117
ag126
ag128
ag129
ag11
ag17
ag132
ag186
ag226
ag36
ag166
ag145
ag144
ag143
ag53
ag142
ag174
ag57
ag202
ag163
ag164
ag165
ag43
ag147
ag167
ag168
ag169
ag170
ag162
ag171
ag173
ag175
ag176
ag177
ag178
ag14
ag25
ag180
ag99
ag113
ag112
ag110
ag109
ag108
ag107
ag106
ag104
ag103
ag102
ag100
ag98
ag28
ag134
ag131
ag130
ag122
ag118
ag92
ag64
ag54
ag82
ag74
ag204
ag179
ag172
ag205
ag216
ag184
ag208
ag209
ag210
ag211
ag212
ag48
ag213
ag214
ag215
ag207
ag218
ag139
ag219
ag220
ag221
ag47
ag222
ag223
ag52
ag224
ag225
ag217
ag206
ag182
ag50
ag161
ag29
ag42
ag160
ag159
ag140
ag141
ag32
ag10
ag7
ag5
ag8
ag146
ag148
ag181
ag149
ag150
ag151
ag45
ag152
ag153
ag154
ag155
ag156
ag157
ag158
ag12
atp323
sI34
(S'20:3_n_6_g_TopFoods'
p324
(lp325
g13
ag39
ag56
ag27
ag16
ag37
ag106
ag87
ag86
ag85
ag84
ag38
ag83
ag88
ag49
ag81
ag80
ag30
ag70
ag89
ag51
ag90
ag78
ag72
ag71
ag61
ag69
ag55
ag59
ag60
ag79
ag75
ag77
ag198
ag187
ag188
ag189
ag190
ag191
ag192
ag193
ag194
ag195
ag196
ag197
ag199
ag76
ag200
ag201
ag137
ag203
ag183
ag138
ag120
ag136
ag73
ag23
ag62
ag58
ag65
ag63
ag22
ag127
ag44
ag115
ag105
ag114
ag96
ag97
ag26
ag46
ag31
ag101
ag33
ag34
ag95
ag19
ag20
ag24
ag6
ag35
ag111
ag40
ag21
ag18
ag135
ag133
ag9
ag132
ag185
ag66
ag67
ag68
ag15
ag91
ag94
ag116
ag4
ag119
ag93
ag121
ag3
ag123
ag124
ag125
ag117
ag126
ag128
ag41
ag129
ag11
ag17
ag186
ag226
ag36
ag43
ag144
ag143
ag53
ag142
ag174
ag57
ag202
ag163
ag164
ag165
ag166
ag167
ag14
ag168
ag169
ag170
ag162
ag171
ag173
ag175
ag176
ag177
ag178
ag179
ag145
ag147
ag205
ag98
ag113
ag112
ag110
ag109
ag108
ag107
ag104
ag103
ag102
ag100
ag99
ag134
ag25
ag131
ag130
ag122
ag118
ag92
ag64
ag54
ag82
ag74
ag204
ag28
ag180
ag172
ag161
ag216
ag184
ag208
ag209
ag210
ag211
ag212
ag48
ag213
ag214
ag215
ag207
ag218
ag42
ag219
ag220
ag221
ag47
ag222
ag223
ag52
ag224
ag225
ag217
ag206
ag182
ag139
ag50
ag181
ag160
ag159
ag140
ag141
ag32
ag10
ag7
ag5
ag8
ag146
ag29
ag148
ag149
ag150
ag151
ag45
ag152
ag153
ag154
ag155
ag156
ag157
ag158
ag12
atp326
sI35
(S'20:3_undifferentiated_g_TopFoods'
p327
(lp328
g160
ag22
ag13
ag39
ag41
ag90
ag56
ag27
ag37
ag16
ag106
ag87
ag60
ag81
ag59
ag49
ag30
ag83
ag84
ag85
ag86
ag88
ag89
ag51
ag79
ag70
ag72
ag55
ag71
ag61
ag69
ag80
ag38
ag78
ag199
ag188
ag189
ag190
ag191
ag192
ag193
ag194
ag195
ag196
ag197
ag198
ag200
ag77
ag201
ag137
ag203
ag183
ag138
ag120
ag136
ag73
ag23
ag75
ag76
ag58
ag65
ag62
ag63
ag127
ag44
ag115
ag105
ag114
ag96
ag97
ag26
ag46
ag31
ag101
ag33
ag34
ag95
ag19
ag20
ag24
ag6
ag35
ag111
ag40
ag21
ag18
ag135
ag133
ag132
ag119
ag9
ag186
ag66
ag67
ag68
ag15
ag91
ag94
ag116
ag4
ag93
ag17
ag121
ag3
ag123
ag124
ag125
ag117
ag126
ag128
ag129
ag11
ag187
ag226
ag185
ag43
ag144
ag143
ag53
ag142
ag174
ag57
ag202
ag163
ag164
ag165
ag166
ag167
ag14
ag168
ag169
ag170
ag162
ag171
ag173
ag175
ag176
ag177
ag178
ag179
ag145
ag147
ag36
ag98
ag113
ag112
ag110
ag109
ag108
ag107
ag104
ag103
ag102
ag100
ag99
ag134
ag25
ag131
ag130
ag122
ag118
ag92
ag64
ag54
ag82
ag74
ag204
ag28
ag180
ag172
ag161
ag218
ag208
ag209
ag210
ag211
ag212
ag48
ag213
ag214
ag215
ag207
ag216
ag219
ag42
ag220
ag221
ag47
ag222
ag223
ag52
ag224
ag225
ag217
ag206
ag205
ag184
ag182
ag139
ag50
ag159
ag140
ag141
ag32
ag10
ag7
ag5
ag8
ag146
ag29
ag148
ag149
ag150
ag151
ag45
ag152
ag153
ag154
ag155
ag156
ag157
ag158
ag181
ag12
atp329
sI36
(S'20:4_n_6_g_TopFoods'
p330
(lp331
g38
ag36
ag79
ag80
ag81
ag49
ag30
ag83
ag84
ag85
ag86
ag87
ag88
ag89
ag51
ag90
ag70
ag72
ag71
ag61
ag69
ag56
ag27
ag55
ag59
ag60
ag58
ag78
ag77
ag76
ag197
ag186
ag187
ag188
ag189
ag190
ag191
ag192
ag193
ag194
ag195
ag196
ag198
ag75
ag199
ag200
ag201
ag137
ag203
ag183
ag138
ag120
ag136
ag73
ag23
ag62
ag63
ag9
ag34
ag115
ag105
ag114
ag96
ag97
ag26
ag16
ag46
ag31
ag101
ag33
ag95
ag127
ag19
ag13
ag20
ag24
ag6
ag35
ag111
ag39
ag40
ag21
ag18
ag44
ag135
ag65
ag3
ag66
ag67
ag68
ag15
ag91
ag94
ag116
ag4
ag119
ag93
ag121
ag123
ag22
ag124
ag125
ag117
ag126
ag128
ag41
ag129
ag11
ag17
ag132
ag133
ag185
ag226
ag205
ag166
ag145
ag144
ag143
ag53
ag142
ag174
ag57
ag202
ag163
ag164
ag165
ag43
ag147
ag167
ag168
ag169
ag170
ag162
ag171
ag173
ag37
ag175
ag176
ag177
ag14
ag25
ag179
ag99
ag113
ag112
ag110
ag109
ag108
ag107
ag106
ag104
ag103
ag102
ag100
ag98
ag28
ag134
ag131
ag130
ag122
ag118
ag92
ag64
ag54
ag82
ag74
ag204
ag178
ag180
ag206
ag207
ag182
ag184
ag208
ag209
ag210
ag211
ag212
ag48
ag213
ag214
ag215
ag216
ag50
ag218
ag219
ag220
ag221
ag47
ag222
ag223
ag52
ag224
ag225
ag217
ag139
ag181
ag172
ag146
ag161
ag42
ag160
ag159
ag140
ag141
ag32
ag10
ag7
ag5
ag8
ag29
ag158
ag148
ag149
ag150
ag151
ag45
ag152
ag153
ag154
ag155
ag156
ag157
ag12
atp332
sI37
(S'20:4_undifferentiated_g_TopFoods'
p333
(lp334
g66
ag60
ag65
ag35
ag59
ag61
ag62
ag39
ag176
ag55
ag45
ag14
ag69
ag16
ag56
ag58
ag63
ag71
ag27
ag13
ag36
ag37
ag132
ag177
ag64
ag178
ag106
ag211
ag38
ag194
ag107
ag43
ag75
ag200
ag138
ag183
ag203
ag72
ag137
ag201
ag199
ag120
ag198
ag197
ag196
ag195
ag193
ag192
ag70
ag90
ag76
ag49
ag77
ag78
ag79
ag23
ag73
ag136
ag81
ag30
ag51
ag83
ag84
ag85
ag86
ag87
ag88
ag89
ag80
ag15
ag9
ag67
ag44
ag115
ag105
ag114
ag96
ag97
ag26
ag46
ag31
ag101
ag33
ag34
ag95
ag19
ag20
ag24
ag6
ag111
ag40
ag21
ag18
ag127
ag135
ag22
ag3
ag68
ag190
ag91
ag94
ag116
ag4
ag119
ag93
ag121
ag123
ag133
ag124
ag125
ag117
ag126
ag128
ag41
ag129
ag11
ag17
ag191
ag226
ag189
ag159
ag143
ag53
ag142
ag174
ag57
ag202
ag163
ag164
ag165
ag166
ag167
ag168
ag169
ag170
ag162
ag171
ag173
ag175
ag179
ag180
ag172
ag161
ag42
ag144
ag145
ag147
ag98
ag113
ag112
ag110
ag109
ag108
ag104
ag103
ag102
ag100
ag99
ag134
ag25
ag131
ag130
ag122
ag118
ag92
ag54
ag82
ag74
ag204
ag28
ag160
ag140
ag188
ag141
ag212
ag48
ag213
ag214
ag215
ag207
ag216
ag218
ag219
ag220
ag221
ag47
ag222
ag223
ag52
ag224
ag225
ag217
ag206
ag205
ag185
ag186
ag187
ag210
ag209
ag208
ag151
ag32
ag10
ag7
ag5
ag8
ag146
ag29
ag148
ag149
ag150
ag152
ag184
ag153
ag154
ag155
ag156
ag157
ag158
ag181
ag50
ag139
ag182
ag12
atp335
sI38
(S'20:5_n_3_EPAeicosapentaenoic_acid_omega_3_g_TopFoods'
p336
(lp337
g65
ag66
ag177
ag178
ag37
ag176
ag175
ag55
ag149
ag144
ag35
ag61
ag69
ag62
ag63
ag13
ag71
ag16
ag56
ag27
ag38
ag120
ag197
ag72
ag183
ag203
ag137
ag201
ag200
ag199
ag198
ag196
ag90
ag195
ag194
ag193
ag59
ag192
ag191
ag60
ag190
ag70
ag51
ag136
ag138
ag73
ag23
ag75
ag76
ag77
ag78
ag79
ag80
ag58
ag89
ag49
ag30
ag83
ag84
ag85
ag86
ag87
ag88
ag81
ag68
ag9
ag33
ag44
ag115
ag105
ag114
ag96
ag97
ag26
ag46
ag31
ag101
ag34
ag67
ag95
ag19
ag20
ag24
ag6
ag111
ag39
ag40
ag21
ag18
ag127
ag135
ag22
ag133
ag188
ag15
ag91
ag94
ag116
ag4
ag119
ag93
ag121
ag3
ag123
ag124
ag125
ag117
ag126
ag128
ag41
ag129
ag11
ag17
ag132
ag189
ag226
ag187
ag166
ag14
ag145
ag143
ag53
ag142
ag174
ag57
ag202
ag163
ag164
ag165
ag43
ag186
ag167
ag168
ag169
ag170
ag162
ag171
ag173
ag179
ag180
ag172
ag161
ag147
ag25
ag28
ag204
ag113
ag112
ag110
ag109
ag108
ag107
ag106
ag104
ag103
ag102
ag100
ag99
ag98
ag134
ag131
ag130
ag122
ag118
ag92
ag64
ag54
ag82
ag74
ag42
ag160
ag159
ag209
ag211
ag212
ag48
ag213
ag214
ag215
ag207
ag216
ag218
ag219
ag220
ag221
ag47
ag222
ag223
ag52
ag224
ag225
ag217
ag206
ag205
ag36
ag185
ag210
ag208
ag140
ag184
ag141
ag32
ag10
ag7
ag5
ag8
ag146
ag29
ag148
ag150
ag151
ag45
ag152
ag153
ag154
ag155
ag156
ag157
ag158
ag181
ag50
ag139
ag182
ag12
atp338
sI39
(S'21:5_g_TopFoods'
p339
(lp340
g38
ag36
ag79
ag80
ag81
ag49
ag30
ag83
ag84
ag85
ag86
ag87
ag88
ag89
ag51
ag90
ag70
ag72
ag71
ag61
ag69
ag56
ag27
ag55
ag59
ag60
ag58
ag78
ag77
ag76
ag197
ag186
ag187
ag188
ag189
ag190
ag191
ag192
ag193
ag194
ag195
ag196
ag198
ag75
ag199
ag200
ag201
ag137
ag203
ag183
ag138
ag120
ag136
ag73
ag23
ag62
ag63
ag9
ag34
ag115
ag105
ag114
ag96
ag97
ag26
ag16
ag46
ag31
ag101
ag33
ag95
ag127
ag19
ag13
ag20
ag24
ag6
ag35
ag111
ag39
ag40
ag21
ag18
ag44
ag135
ag65
ag3
ag66
ag67
ag68
ag15
ag91
ag94
ag116
ag4
ag119
ag93
ag121
ag123
ag22
ag124
ag125
ag117
ag126
ag128
ag41
ag129
ag11
ag17
ag132
ag133
ag185
ag226
ag205
ag166
ag145
ag144
ag143
ag53
ag142
ag174
ag57
ag202
ag163
ag164
ag165
ag43
ag147
ag167
ag168
ag169
ag170
ag162
ag171
ag173
ag37
ag175
ag176
ag177
ag14
ag25
ag179
ag99
ag113
ag112
ag110
ag109
ag108
ag107
ag106
ag104
ag103
ag102
ag100
ag98
ag28
ag134
ag131
ag130
ag122
ag118
ag92
ag64
ag54
ag82
ag74
ag204
ag178
ag180
ag206
ag207
ag182
ag184
ag208
ag209
ag210
ag211
ag212
ag48
ag213
ag214
ag215
ag216
ag50
ag218
ag219
ag220
ag221
ag47
ag222
ag223
ag52
ag224
ag225
ag217
ag139
ag181
ag172
ag146
ag161
ag42
ag160
ag159
ag140
ag141
ag32
ag10
ag7
ag5
ag8
ag29
ag158
ag148
ag149
ag150
ag151
ag45
ag152
ag153
ag154
ag155
ag156
ag157
ag12
atp341
sI40
(S'22:0_g_TopFoods'
p342
(lp343
g123
ag144
ag67
ag140
ag149
ag105
ag16
ag29
ag121
ag106
ag160
ag45
ag31
ag179
ag163
ag127
ag42
ag35
ag152
ag64
ag135
ag3
ag41
ag36
ag53
ag13
ag110
ag30
ag56
ag59
ag23
ag58
ag43
ag186
ag218
ag38
ag39
ag99
ag107
ag187
ag27
ag37
ag47
ag148
ag90
ag61
ag51
ag89
ag81
ag88
ag71
ag87
ag86
ag85
ag84
ag83
ag69
ag49
ag70
ag72
ag22
ag80
ag138
ag198
ag199
ag200
ag201
ag137
ag203
ag183
ag18
ag21
ag111
ag120
ag136
ag73
ag40
ag75
ag76
ag77
ag78
ag79
ag55
ag133
ag4
ag46
ag93
ag26
ag97
ag96
ag124
ag125
ag117
ag126
ag128
ag114
ag129
ag115
ag11
ag17
ag132
ag44
ag119
ag116
ag6
ag101
ag60
ag24
ag20
ag62
ag63
ag19
ag95
ag9
ag65
ag66
ag34
ag68
ag15
ag91
ag196
ag94
ag33
ag197
ag226
ag195
ag145
ag142
ag174
ag57
ag202
ag164
ag165
ag166
ag167
ag168
ag169
ag170
ag162
ag171
ag173
ag175
ag176
ag177
ag178
ag180
ag172
ag161
ag143
ag14
ag141
ag147
ag113
ag112
ag109
ag108
ag104
ag103
ag102
ag100
ag98
ag134
ag131
ag130
ag122
ag118
ag92
ag54
ag82
ag74
ag204
ag28
ag25
ag159
ag32
ag194
ag213
ag215
ag207
ag216
ag219
ag220
ag221
ag222
ag223
ag52
ag224
ag225
ag217
ag206
ag205
ag185
ag188
ag189
ag190
ag191
ag192
ag193
ag214
ag48
ag10
ag212
ag7
ag5
ag8
ag146
ag150
ag151
ag153
ag154
ag155
ag156
ag157
ag158
ag181
ag50
ag139
ag182
ag184
ag208
ag209
ag210
ag211
ag12
atp344
sI41
(S'22:1_c_g_TopFoods'
p345
(lp346
g41
ag37
ag16
ag13
ag43
ag107
ag38
ag87
ag86
ag84
ag85
ag89
ag83
ag30
ag49
ag81
ag88
ag90
ag51
ag79
ag70
ag72
ag71
ag61
ag69
ag56
ag27
ag55
ag59
ag60
ag80
ag77
ag78
ag199
ag188
ag189
ag190
ag191
ag192
ag193
ag194
ag195
ag196
ag197
ag198
ag200
ag62
ag201
ag137
ag203
ag183
ag138
ag120
ag136
ag73
ag23
ag75
ag76
ag58
ag66
ag63
ag135
ag44
ag115
ag105
ag114
ag96
ag97
ag26
ag46
ag31
ag101
ag33
ag34
ag95
ag19
ag20
ag24
ag6
ag35
ag111
ag39
ag40
ag21
ag18
ag127
ag22
ag9
ag133
ag65
ag186
ag67
ag68
ag15
ag91
ag94
ag116
ag4
ag119
ag93
ag121
ag3
ag123
ag124
ag125
ag117
ag126
ag128
ag129
ag11
ag17
ag132
ag187
ag226
ag185
ag167
ag144
ag143
ag53
ag142
ag174
ag57
ag202
ag163
ag164
ag165
ag166
ag168
ag14
ag169
ag170
ag162
ag171
ag173
ag175
ag176
ag177
ag178
ag179
ag180
ag145
ag147
ag36
ag98
ag113
ag112
ag110
ag109
ag108
ag106
ag104
ag103
ag102
ag100
ag99
ag134
ag25
ag131
ag130
ag122
ag118
ag92
ag64
ag54
ag82
ag74
ag204
ag28
ag172
ag161
ag42
ag218
ag208
ag209
ag210
ag211
ag212
ag48
ag213
ag214
ag215
ag207
ag216
ag219
ag160
ag220
ag221
ag47
ag222
ag223
ag52
ag224
ag225
ag217
ag206
ag205
ag184
ag182
ag139
ag50
ag159
ag140
ag141
ag32
ag10
ag7
ag5
ag8
ag146
ag29
ag148
ag149
ag150
ag151
ag45
ag152
ag153
ag154
ag155
ag156
ag157
ag158
ag181
ag12
atp347
sI42
(S'22:1_t_g_TopFoods'
p348
(lp349
g37
ag106
ag45
ag38
ag51
ag81
ag49
ag30
ag83
ag84
ag85
ag86
ag87
ag88
ag89
ag70
ag90
ag79
ag72
ag71
ag61
ag69
ag56
ag27
ag55
ag59
ag60
ag58
ag80
ag78
ag63
ag199
ag188
ag189
ag190
ag191
ag192
ag193
ag194
ag195
ag196
ag197
ag198
ag200
ag77
ag201
ag137
ag203
ag183
ag138
ag120
ag136
ag73
ag23
ag75
ag76
ag62
ag65
ag9
ag34
ag115
ag105
ag114
ag96
ag97
ag26
ag16
ag46
ag31
ag101
ag33
ag95
ag127
ag19
ag13
ag20
ag24
ag6
ag35
ag111
ag39
ag40
ag21
ag18
ag44
ag135
ag186
ag3
ag66
ag67
ag68
ag15
ag91
ag94
ag116
ag4
ag119
ag93
ag121
ag123
ag22
ag124
ag125
ag117
ag126
ag128
ag41
ag129
ag11
ag17
ag132
ag133
ag187
ag226
ag185
ag43
ag144
ag143
ag53
ag142
ag174
ag57
ag202
ag163
ag164
ag165
ag166
ag167
ag14
ag168
ag169
ag170
ag162
ag171
ag173
ag175
ag176
ag177
ag178
ag179
ag145
ag147
ag36
ag98
ag113
ag112
ag110
ag109
ag108
ag107
ag104
ag103
ag102
ag100
ag99
ag134
ag25
ag131
ag130
ag122
ag118
ag92
ag64
ag54
ag82
ag74
ag204
ag28
ag180
ag172
ag161
ag218
ag208
ag209
ag210
ag211
ag212
ag48
ag213
ag214
ag215
ag207
ag216
ag219
ag42
ag220
ag221
ag47
ag222
ag223
ag52
ag224
ag225
ag217
ag206
ag205
ag184
ag182
ag139
ag50
ag160
ag159
ag140
ag141
ag32
ag10
ag7
ag5
ag8
ag146
ag29
ag148
ag149
ag150
ag151
ag152
ag153
ag154
ag155
ag156
ag157
ag158
ag181
ag12
atp350
sI43
(S'22:1_undifferentiated_g_TopFoods'
p351
(lp352
g68
ag105
ag66
ag65
ag41
ag140
ag177
ag178
ag144
ag169
ag64
ag208
ag37
ag149
ag16
ag179
ag170
ag25
ag28
ag35
ag30
ag13
ag43
ag107
ag45
ag106
ag23
ag61
ag90
ag200
ag70
ag72
ag199
ag71
ag69
ag89
ag56
ag27
ag55
ag198
ag59
ag197
ag60
ag196
ag195
ag58
ag51
ag201
ag73
ag80
ag75
ag76
ag77
ag136
ag120
ag78
ag138
ag79
ag183
ag81
ag137
ag49
ag62
ag83
ag84
ag85
ag86
ag87
ag203
ag88
ag38
ag116
ag63
ag9
ag44
ag115
ag114
ag96
ag97
ag26
ag46
ag31
ag101
ag33
ag34
ag95
ag19
ag20
ag24
ag6
ag111
ag39
ag40
ag21
ag18
ag127
ag135
ag22
ag3
ag67
ag15
ag91
ag94
ag193
ag4
ag119
ag93
ag121
ag123
ag133
ag124
ag125
ag117
ag126
ag128
ag129
ag11
ag17
ag132
ag194
ag226
ag192
ag162
ag142
ag174
ag57
ag202
ag163
ag164
ag165
ag166
ag167
ag168
ag171
ag143
ag173
ag175
ag176
ag180
ag172
ag161
ag42
ag160
ag159
ag141
ag53
ag145
ag10
ag98
ag113
ag112
ag110
ag109
ag108
ag104
ag103
ag102
ag100
ag99
ag134
ag14
ag131
ag130
ag122
ag118
ag92
ag54
ag82
ag74
ag204
ag147
ag32
ag7
ag191
ag224
ag207
ag216
ag218
ag219
ag220
ag221
ag47
ag222
ag223
ag52
ag225
ag214
ag217
ag206
ag205
ag36
ag185
ag186
ag187
ag188
ag189
ag190
ag215
ag213
ag5
ag156
ag8
ag146
ag29
ag148
ag150
ag151
ag152
ag153
ag154
ag155
ag157
ag48
ag158
ag181
ag50
ag139
ag182
ag184
ag209
ag210
ag211
ag212
ag12
atp353
sI44
(S'22:4_g_TopFoods'
p354
(lp355
g16
ag56
ag27
ag39
ag13
ag45
ag37
ag38
ag36
ag24
ag20
ag78
ag79
ag80
ag81
ag49
ag30
ag83
ag84
ag85
ag86
ag18
ag87
ag88
ag89
ag51
ag90
ag70
ag72
ag71
ag61
ag69
ag21
ag40
ag77
ag76
ag75
ag197
ag187
ag188
ag189
ag190
ag191
ag192
ag193
ag194
ag195
ag196
ag198
ag23
ag199
ag200
ag201
ag137
ag203
ag183
ag138
ag120
ag136
ag73
ag55
ag59
ag60
ag96
ag17
ag132
ag133
ag22
ag135
ag127
ag44
ag115
ag105
ag114
ag97
ag129
ag26
ag35
ag46
ag31
ag101
ag33
ag34
ag95
ag19
ag6
ag11
ag41
ag58
ag94
ag62
ag63
ag186
ag65
ag66
ag67
ag68
ag15
ag111
ag91
ag116
ag128
ag4
ag119
ag93
ag121
ag3
ag123
ag124
ag125
ag117
ag126
ag9
ag226
ag185
ag166
ag145
ag144
ag143
ag53
ag142
ag174
ag57
ag202
ag163
ag164
ag165
ag43
ag147
ag167
ag168
ag169
ag170
ag162
ag171
ag173
ag175
ag176
ag177
ag178
ag14
ag25
ag205
ag99
ag113
ag112
ag110
ag109
ag108
ag107
ag106
ag104
ag103
ag102
ag100
ag98
ag28
ag134
ag131
ag130
ag122
ag118
ag92
ag64
ag54
ag82
ag74
ag204
ag179
ag180
ag172
ag216
ag184
ag208
ag209
ag210
ag211
ag212
ag48
ag213
ag214
ag215
ag207
ag218
ag161
ag219
ag220
ag221
ag47
ag222
ag223
ag52
ag224
ag225
ag217
ag206
ag182
ag139
ag50
ag181
ag42
ag160
ag159
ag140
ag141
ag32
ag10
ag7
ag5
ag8
ag146
ag29
ag148
ag149
ag150
ag151
ag152
ag153
ag154
ag155
ag156
ag157
ag158
ag12
atp356
sI45
(S'22:5_n_3_DPA_g_TopFoods'
p357
(lp358
g65
ag66
ag16
ag176
ag37
ag177
ag69
ag55
ag178
ag63
ag13
ag56
ag71
ag39
ag27
ag132
ag106
ag86
ag85
ag84
ag38
ag83
ag30
ag88
ag87
ag61
ag89
ag51
ag90
ag70
ag72
ag81
ag59
ag49
ag79
ag80
ag58
ag189
ag190
ag191
ag192
ag193
ag194
ag195
ag196
ag197
ag198
ag199
ag200
ag201
ag137
ag203
ag183
ag138
ag120
ag136
ag73
ag23
ag75
ag76
ag77
ag78
ag60
ag67
ag62
ag33
ag44
ag115
ag105
ag114
ag96
ag97
ag26
ag46
ag31
ag101
ag34
ag9
ag95
ag19
ag20
ag24
ag6
ag35
ag111
ag40
ag21
ag18
ag127
ag135
ag22
ag133
ag187
ag68
ag15
ag91
ag94
ag116
ag4
ag119
ag93
ag121
ag3
ag123
ag124
ag125
ag117
ag126
ag128
ag41
ag129
ag11
ag17
ag188
ag226
ag186
ag166
ag145
ag144
ag143
ag53
ag142
ag174
ag57
ag202
ag163
ag164
ag165
ag43
ag42
ag167
ag168
ag169
ag170
ag162
ag171
ag173
ag175
ag179
ag180
ag172
ag14
ag147
ag25
ag28
ag113
ag112
ag110
ag109
ag108
ag107
ag104
ag103
ag102
ag100
ag99
ag98
ag134
ag131
ag130
ag122
ag118
ag92
ag64
ag54
ag82
ag74
ag204
ag161
ag160
ag185
ag219
ag209
ag210
ag211
ag212
ag48
ag213
ag214
ag215
ag207
ag216
ag218
ag220
ag159
ag221
ag47
ag222
ag223
ag52
ag224
ag225
ag217
ag206
ag205
ag36
ag208
ag184
ag182
ag139
ag140
ag141
ag32
ag10
ag7
ag5
ag8
ag146
ag29
ag148
ag149
ag150
ag151
ag45
ag152
ag153
ag154
ag155
ag156
ag157
ag158
ag181
ag50
ag12
atp359
sI46
(S'22:6_n_3_DHA_docosahexaenoic_acid_omega_3_g_TopFoods'
p360
(lp361
g65
ag66
ag177
ag178
ag37
ag175
ag176
ag35
ag55
ag39
ag69
ag64
ag61
ag63
ag71
ag62
ag56
ag27
ag13
ag89
ag83
ag84
ag85
ag86
ag87
ag88
ag51
ag49
ag90
ag70
ag72
ag60
ag59
ag30
ag38
ag81
ag201
ag189
ag190
ag191
ag192
ag193
ag194
ag195
ag196
ag197
ag198
ag199
ag200
ag137
ag58
ag203
ag183
ag138
ag120
ag136
ag73
ag23
ag75
ag76
ag77
ag78
ag79
ag80
ag68
ag9
ag101
ag44
ag115
ag105
ag114
ag96
ag97
ag26
ag16
ag46
ag31
ag33
ag67
ag34
ag95
ag19
ag20
ag24
ag6
ag111
ag40
ag21
ag18
ag127
ag135
ag22
ag133
ag187
ag15
ag91
ag94
ag116
ag4
ag119
ag93
ag121
ag3
ag123
ag124
ag125
ag117
ag126
ag128
ag41
ag129
ag11
ag17
ag132
ag188
ag226
ag186
ag166
ag145
ag144
ag143
ag53
ag142
ag174
ag57
ag202
ag163
ag164
ag165
ag43
ag185
ag167
ag168
ag169
ag170
ag162
ag171
ag173
ag179
ag180
ag172
ag161
ag14
ag147
ag25
ag28
ag113
ag112
ag110
ag109
ag108
ag107
ag106
ag104
ag103
ag102
ag100
ag99
ag98
ag134
ag131
ag130
ag122
ag118
ag92
ag54
ag82
ag74
ag204
ag42
ag160
ag159
ag208
ag210
ag211
ag212
ag48
ag213
ag214
ag215
ag207
ag216
ag218
ag219
ag220
ag221
ag47
ag222
ag223
ag52
ag224
ag225
ag217
ag206
ag205
ag36
ag209
ag184
ag140
ag182
ag141
ag32
ag10
ag7
ag5
ag8
ag146
ag29
ag148
ag149
ag150
ag151
ag45
ag152
ag153
ag154
ag155
ag156
ag157
ag158
ag181
ag50
ag139
ag12
atp362
sI47
(S'24:0_g_TopFoods'
p363
(lp364
g123
ag144
ag16
ag140
ag105
ag29
ag149
ag135
ag106
ag45
ag179
ag3
ag30
ag36
ag53
ag64
ag41
ag35
ag99
ag13
ag43
ag38
ag107
ag23
ag186
ag187
ag47
ag37
ag56
ag120
ag72
ag88
ag89
ag51
ag90
ag199
ag70
ag69
ag71
ag61
ag197
ag196
ag198
ag27
ag55
ag195
ag59
ag200
ag85
ag87
ag86
ag136
ag73
ag75
ag76
ag77
ag138
ag60
ag78
ag79
ag80
ag183
ag49
ag203
ag137
ag201
ag83
ag84
ag81
ag68
ag58
ag33
ag127
ag44
ag115
ag114
ag96
ag97
ag26
ag46
ag31
ag101
ag34
ag62
ag95
ag19
ag20
ag24
ag6
ag111
ag39
ag40
ag21
ag18
ag22
ag133
ag132
ag17
ag63
ag9
ag65
ag66
ag67
ag193
ag15
ag91
ag94
ag116
ag4
ag119
ag93
ag121
ag124
ag125
ag117
ag126
ag128
ag129
ag11
ag194
ag226
ag192
ag169
ag142
ag174
ag57
ag202
ag163
ag164
ag165
ag166
ag167
ag168
ag170
ag145
ag162
ag171
ag173
ag175
ag176
ag177
ag178
ag180
ag172
ag161
ag143
ag14
ag160
ag134
ag113
ag112
ag110
ag109
ag108
ag104
ag103
ag102
ag100
ag98
ag131
ag147
ag130
ag122
ag118
ag92
ag54
ag82
ag74
ag204
ag28
ag25
ag42
ag159
ag191
ag222
ag48
ag213
ag214
ag215
ag207
ag216
ag218
ag219
ag220
ag221
ag223
ag211
ag52
ag224
ag225
ag217
ag206
ag205
ag185
ag188
ag189
ag190
ag212
ag210
ag141
ag153
ag32
ag10
ag7
ag5
ag8
ag146
ag148
ag150
ag151
ag152
ag154
ag209
ag155
ag156
ag157
ag158
ag181
ag50
ag139
ag182
ag184
ag208
ag12
atp365
sI48
(S'24:1_c_g_TopFoods'
p366
(lp367
g105
ag179
ag41
ag140
ag64
ag106
ag37
ag45
ag13
ag99
ag107
ag36
ag83
ag70
ag87
ag84
ag86
ag88
ag89
ag51
ag90
ag85
ag71
ag72
ag49
ag61
ag69
ag56
ag27
ag55
ag59
ag60
ag58
ag62
ag30
ag38
ag81
ag137
ag191
ag192
ag193
ag194
ag195
ag196
ag197
ag198
ag199
ag200
ag201
ag203
ag80
ag183
ag138
ag120
ag136
ag73
ag23
ag75
ag76
ag77
ag63
ag79
ag78
ag67
ag9
ag65
ag44
ag115
ag114
ag96
ag97
ag26
ag16
ag46
ag31
ag101
ag33
ag34
ag95
ag19
ag20
ag24
ag6
ag35
ag111
ag39
ag40
ag21
ag18
ag127
ag135
ag22
ag121
ag66
ag189
ag68
ag15
ag91
ag94
ag116
ag4
ag119
ag93
ag3
ag133
ag123
ag124
ag125
ag117
ag126
ag128
ag129
ag11
ag17
ag132
ag190
ag226
ag188
ag144
ag53
ag142
ag174
ag57
ag202
ag163
ag164
ag165
ag166
ag43
ag167
ag168
ag169
ag170
ag162
ag171
ag173
ag175
ag176
ag177
ag178
ag180
ag172
ag143
ag145
ag42
ag14
ag113
ag112
ag110
ag109
ag108
ag104
ag103
ag102
ag100
ag98
ag134
ag131
ag130
ag122
ag118
ag92
ag54
ag82
ag74
ag204
ag28
ag25
ag147
ag161
ag160
ag187
ag209
ag211
ag212
ag48
ag213
ag214
ag215
ag207
ag216
ag218
ag219
ag220
ag221
ag47
ag222
ag223
ag52
ag224
ag225
ag217
ag206
ag205
ag185
ag186
ag210
ag208
ag159
ag184
ag141
ag32
ag10
ag7
ag5
ag8
ag146
ag29
ag148
ag149
ag150
ag151
ag152
ag153
ag154
ag155
ag156
ag157
ag158
ag181
ag50
ag139
ag182
ag12
atp368
sI49
(S'4:0_g_TopFoods'
p369
(lp370
g6
ag9
ag12
ag13
ag18
ag19
ag20
ag21
ag24
ag3
ag47
ag187
ag186
ag36
ag38
ag40
ag39
ag37
ag56
ag134
ag72
ag84
ag85
ag86
ag87
ag88
ag89
ag51
ag90
ag70
ag61
ag71
ag30
ag69
ag27
ag55
ag59
ag60
ag58
ag62
ag63
ag103
ag83
ag49
ag66
ag183
ag194
ag195
ag196
ag197
ag198
ag199
ag200
ag201
ag137
ag203
ag138
ag81
ag120
ag136
ag73
ag23
ag75
ag76
ag77
ag78
ag79
ag80
ag65
ag68
ag67
ag33
ag115
ag105
ag114
ag96
ag97
ag26
ag16
ag46
ag31
ag101
ag34
ag192
ag95
ag106
ag107
ag108
ag109
ag110
ag35
ag111
ag112
ag113
ag44
ag127
ag135
ag22
ag15
ag91
ag94
ag116
ag4
ag119
ag93
ag121
ag104
ag123
ag124
ag125
ag117
ag126
ag128
ag41
ag129
ag11
ag17
ag132
ag133
ag193
ag191
ag131
ag178
ag167
ag168
ag169
ag170
ag162
ag171
ag173
ag175
ag176
ag177
ag179
ag166
ag180
ag172
ag161
ag42
ag160
ag159
ag140
ag141
ag32
ag10
ag43
ag165
ag5
ag25
ag130
ag122
ag118
ag92
ag64
ag54
ag82
ag74
ag204
ag28
ag147
ag164
ag14
ag145
ag144
ag143
ag53
ag142
ag174
ag57
ag202
ag163
ag7
ag8
ag190
ag52
ag215
ag207
ag216
ag218
ag219
ag220
ag221
ag98
ag222
ag223
ag224
ag213
ag225
ag217
ag206
ag205
ag99
ag185
ag100
ag102
ag188
ag189
ag214
ag48
ag146
ag156
ag29
ag148
ag149
ag150
ag151
ag45
ag152
ag153
ag154
ag155
ag157
ag212
ag158
ag181
ag50
ag139
ag182
ag184
ag208
ag209
ag210
ag211
ag226
atp371
sI50
(S'6:0_g_TopFoods'
p372
(lp373
g6
ag9
ag3
ag12
ag13
ag5
ag4
ag7
ag8
ag10
ag19
ag20
ag18
ag133
ag21
ag24
ag31
ag22
ag42
ag16
ag40
ag32
ag45
ag36
ag85
ag30
ag88
ag86
ag87
ag83
ag84
ag191
ag89
ag51
ag90
ag70
ag72
ag71
ag61
ag69
ag56
ag49
ag77
ag81
ag201
ag190
ag192
ag193
ag194
ag195
ag196
ag197
ag198
ag199
ag200
ag137
ag80
ag203
ag183
ag138
ag120
ag136
ag73
ag75
ag76
ag78
ag79
ag23
ag58
ag27
ag96
ag11
ag17
ag132
ag135
ag127
ag44
ag115
ag105
ag114
ag97
ag41
ag26
ag46
ag101
ag33
ag34
ag95
ag35
ag111
ag39
ag129
ag128
ag55
ag15
ag59
ag60
ag188
ag62
ag63
ag65
ag66
ag67
ag68
ag91
ag126
ag94
ag116
ag119
ag93
ag121
ag123
ag124
ag125
ag117
ag189
ag38
ag187
ag25
ag14
ag145
ag144
ag143
ag53
ag142
ag174
ag57
ag202
ag163
ag164
ag165
ag166
ag43
ag167
ag168
ag169
ag170
ag162
ag171
ag173
ag37
ag175
ag147
ag28
ag177
ag204
ag113
ag112
ag110
ag109
ag108
ag107
ag106
ag104
ag103
ag102
ag100
ag99
ag98
ag134
ag131
ag130
ag122
ag118
ag92
ag64
ag54
ag82
ag74
ag176
ag178
ag186
ag208
ag210
ag211
ag212
ag48
ag213
ag214
ag215
ag207
ag216
ag218
ag219
ag220
ag221
ag47
ag222
ag223
ag52
ag224
ag225
ag217
ag206
ag205
ag185
ag209
ag184
ag179
ag182
ag180
ag172
ag161
ag160
ag159
ag140
ag141
ag146
ag29
ag148
ag149
ag150
ag151
ag152
ag153
ag154
ag155
ag156
ag157
ag158
ag181
ag50
ag139
ag226
atp374
sI51
(S'8:0_g_TopFoods'
p375
(lp376
g3
ag5
ag4
ag7
ag8
ag10
ag6
ag9
ag12
ag13
ag17
ag15
ag22
ag19
ag20
ag18
ag25
ag28
ag16
ag21
ag29
ag144
ag32
ag24
ag204
ag34
ag35
ag212
ag39
ag11
ag47
ag40
ag56
ag37
ag49
ag187
ag186
ag90
ag89
ag85
ag86
ag87
ag88
ag197
ag196
ag51
ag84
ag195
ag194
ag70
ag72
ag71
ag61
ag198
ag138
ag83
ag183
ag203
ag120
ag136
ag137
ag69
ag73
ag23
ag75
ag76
ag77
ag78
ag79
ag80
ag201
ag200
ag81
ag199
ag30
ag65
ag27
ag114
ag129
ag132
ag133
ag135
ag127
ag44
ag115
ag105
ag96
ag128
ag97
ag26
ag46
ag31
ag101
ag33
ag95
ag111
ag41
ag126
ag55
ag68
ag59
ag60
ag58
ag62
ag63
ag192
ag66
ag67
ag91
ag117
ag94
ag116
ag119
ag93
ag121
ag123
ag124
ag125
ag193
ag38
ag191
ag190
ag143
ag53
ag142
ag174
ag57
ag202
ag163
ag164
ag165
ag166
ag43
ag167
ag168
ag169
ag170
ag162
ag171
ag173
ag175
ag176
ag177
ag178
ag179
ag145
ag14
ag147
ag100
ag113
ag112
ag110
ag109
ag108
ag107
ag106
ag104
ag103
ag102
ag99
ag74
ag98
ag134
ag131
ag130
ag122
ag118
ag92
ag64
ag54
ag82
ag180
ag172
ag161
ag222
ag48
ag213
ag214
ag215
ag207
ag216
ag218
ag219
ag220
ag221
ag223
ag210
ag52
ag224
ag225
ag217
ag206
ag205
ag36
ag185
ag188
ag189
ag211
ag209
ag42
ag152
ag160
ag159
ag140
ag141
ag146
ag148
ag149
ag150
ag151
ag45
ag153
ag208
ag154
ag155
ag156
ag157
ag158
ag181
ag50
ag139
ag182
ag184
ag226
atp377
sI52
(S'Alanine_g_TopFoods'
p378
(lp379
g164
ag135
ag177
ag202
ag37
ag180
ag45
ag27
ag169
ag36
ag178
ag69
ag105
ag63
ag176
ag56
ag149
ag174
ag175
ag170
ag55
ag167
ag43
ag161
ag152
ag53
ag142
ag99
ag166
ag96
ag148
ag59
ag71
ag171
ag54
ag60
ag42
ag165
ag61
ag150
ag179
ag33
ag144
ag162
ag92
ag62
ag133
ag29
ag35
ag97
ag173
ag145
ag151
ag38
ag25
ag39
ag141
ag28
ag112
ag111
ag78
ag172
ag160
ag127
ag22
ag64
ag110
ag113
ag109
ag44
ag163
ag12
ag102
ag147
ag31
ag118
ag204
ag103
ag134
ag108
ag131
ag14
ag159
ag104
ag140
ag74
ag98
ag5
ag146
ag130
ag11
ag16
ag40
ag139
ag21
ag194
ag209
ag7
ag117
ag8
ag46
ag41
ag18
ag211
ag157
ag221
ag80
ag129
ag57
ag48
ag75
ag10
ag24
ag207
ag82
ag90
ag19
ag20
ag218
ag23
ag220
ag49
ag154
ag201
ag223
ag184
ag87
ag72
ag156
ag219
ag210
ag136
ag213
ag198
ag83
ag81
ag200
ag216
ag51
ag70
ag32
ag217
ag191
ag88
ag212
ag192
ag6
ag153
ag197
ag195
ag190
ag181
ag85
ag158
ag214
ag76
ag182
ag77
ag52
ag84
ag206
ag196
ag193
ag222
ag168
ag114
ag186
ag26
ag187
ag188
ag100
ag205
ag115
ag189
ag199
ag122
ag185
ag101
ag143
ag34
ag95
ag225
ag13
ag224
ag47
ag106
ag107
ag215
ag208
ag50
ag155
ag132
ag17
ag137
ag91
ag89
ag86
ag30
ag79
ag58
ag73
ag120
ag9
ag65
ag66
ag67
ag68
ag15
ag94
ag203
ag116
ag4
ag119
ag93
ag121
ag3
ag123
ag124
ag125
ag138
ag126
ag128
ag183
ag226
atp380
sI53
(S'Alcohol_ethyl_g_TopFoods'
p381
(lp382
g126
ag38
ag62
ag79
ag80
ag81
ag49
ag30
ag83
ag84
ag85
ag86
ag87
ag88
ag89
ag51
ag90
ag70
ag72
ag71
ag61
ag69
ag56
ag27
ag55
ag59
ag60
ag78
ag77
ag76
ag197
ag186
ag187
ag188
ag189
ag190
ag191
ag192
ag193
ag194
ag195
ag196
ag198
ag75
ag199
ag200
ag201
ag137
ag203
ag183
ag138
ag120
ag136
ag73
ag23
ag58
ag63
ag36
ag34
ag115
ag105
ag114
ag96
ag97
ag26
ag16
ag46
ag31
ag101
ag33
ag95
ag127
ag19
ag13
ag20
ag24
ag6
ag35
ag111
ag39
ag40
ag21
ag18
ag44
ag135
ag9
ag121
ag65
ag66
ag67
ag68
ag15
ag91
ag94
ag116
ag4
ag119
ag93
ag3
ag22
ag123
ag124
ag125
ag117
ag128
ag41
ag129
ag11
ag17
ag132
ag133
ag185
ag226
ag205
ag166
ag145
ag144
ag143
ag53
ag142
ag174
ag57
ag202
ag163
ag164
ag165
ag43
ag147
ag167
ag168
ag169
ag170
ag162
ag171
ag173
ag37
ag175
ag176
ag177
ag14
ag25
ag179
ag99
ag113
ag112
ag110
ag109
ag108
ag107
ag106
ag104
ag103
ag102
ag100
ag98
ag28
ag134
ag131
ag130
ag122
ag118
ag92
ag64
ag54
ag82
ag74
ag204
ag178
ag180
ag206
ag207
ag182
ag184
ag208
ag209
ag210
ag211
ag212
ag48
ag213
ag214
ag215
ag216
ag50
ag218
ag219
ag220
ag221
ag47
ag222
ag223
ag52
ag224
ag225
ag217
ag139
ag181
ag172
ag146
ag161
ag42
ag160
ag159
ag140
ag141
ag32
ag10
ag7
ag5
ag8
ag29
ag158
ag148
ag149
ag150
ag151
ag45
ag152
ag153
ag154
ag155
ag156
ag157
ag12
atp383
sI54
(S'Arginine_g_TopFoods'
p384
(lp385
g45
ag180
ag169
ag161
ag164
ag166
ag144
ag202
ag150
ag148
ag96
ag160
ag149
ag172
ag141
ag152
ag42
ag29
ag133
ag162
ag105
ag53
ag179
ag43
ag142
ag135
ag151
ag177
ag174
ag167
ag170
ag37
ag27
ag171
ag140
ag145
ag69
ag56
ag165
ag63
ag33
ag178
ag61
ag62
ag92
ag55
ag159
ag173
ag5
ag176
ag71
ag35
ag59
ag64
ag175
ag60
ag25
ag28
ag127
ag109
ag12
ag39
ag163
ag78
ag110
ag97
ag102
ag111
ag48
ag147
ag7
ag204
ag118
ag103
ag8
ag11
ag108
ag130
ag31
ag104
ag134
ag112
ag74
ag98
ag131
ag44
ag139
ag14
ag54
ag10
ag36
ag146
ag99
ag113
ag38
ag16
ag22
ag41
ag57
ag218
ag40
ag46
ag211
ag157
ag21
ag117
ag82
ag23
ag49
ag76
ag156
ag221
ag32
ag129
ag182
ag18
ag24
ag154
ag19
ag194
ag207
ag20
ag90
ag184
ag136
ag209
ag80
ag216
ag220
ag210
ag77
ag197
ag198
ag75
ag223
ag52
ag213
ag83
ag181
ag51
ag72
ag214
ag212
ag219
ag158
ag88
ag201
ag6
ag217
ag153
ag70
ag87
ag191
ag195
ag85
ag81
ag206
ag192
ag200
ag84
ag193
ag196
ag190
ag222
ag186
ag189
ag155
ag132
ag188
ag17
ag187
ag115
ag168
ag114
ag79
ag143
ag26
ag185
ag205
ag101
ag34
ag95
ag13
ag225
ag224
ag100
ag106
ag107
ag47
ag122
ag123
ag128
ag9
ag73
ag30
ag120
ag86
ag89
ag138
ag183
ag203
ag137
ag215
ag208
ag199
ag50
ag58
ag65
ag126
ag66
ag67
ag68
ag15
ag91
ag94
ag116
ag4
ag119
ag93
ag121
ag3
ag124
ag125
ag226
atp386
sI55
(S'Ash_g_TopFoods'
p387
(lp388
g128
ag163
ag31
ag17
ag135
ag177
ag97
ag44
ag127
ag26
ag11
ag95
ag133
ag33
ag101
ag16
ag151
ag132
ag164
ag152
ag45
ag22
ag202
ag150
ag12
ag105
ag173
ag168
ag13
ag174
ag142
ag180
ag171
ag179
ag146
ag34
ag46
ag165
ag96
ag41
ag167
ag169
ag54
ag170
ag149
ag144
ag53
ag42
ag148
ag162
ag143
ag224
ag43
ag160
ag29
ag28
ag194
ag161
ag64
ag115
ag166
ag147
ag141
ag114
ag25
ag117
ag137
ag5
ag37
ag80
ag110
ag172
ag223
ag157
ag92
ag35
ag186
ag107
ag187
ag50
ag49
ag102
ag90
ag131
ag211
ag103
ag100
ag176
ag204
ag221
ag48
ag159
ag129
ag215
ag113
ag178
ag99
ag145
ag75
ag109
ag208
ag38
ag108
ag118
ag36
ag112
ag134
ag40
ag71
ag188
ag7
ag140
ag27
ag106
ag21
ag219
ag39
ag59
ag104
ag175
ag61
ag62
ag155
ag8
ag207
ag63
ag56
ag58
ag23
ag47
ag55
ag70
ag57
ag139
ag218
ag184
ag60
ag209
ag69
ag156
ag51
ag181
ag225
ag78
ag98
ag212
ag226
ag72
ag24
ag183
ag10
ag18
ag199
ag19
ag20
ag213
ag220
ag81
ag216
ag111
ag210
ag74
ag136
ag130
ag154
ag158
ag192
ag189
ag87
ag205
ag9
ag153
ag206
ag79
ag76
ag85
ag185
ag198
ag203
ag195
ag84
ag200
ag86
ag217
ag196
ag32
ag197
ag214
ag190
ag125
ag89
ag73
ag201
ag14
ag182
ag193
ag77
ag138
ag120
ag82
ag126
ag52
ag88
ag191
ag30
ag222
ag122
ag83
ag6
ag3
ag68
ag67
ag66
ag65
ag91
ag94
ag116
ag4
ag119
ag93
ag121
ag123
ag124
ag15
atp389
sI56
(S'Aspartic_acid_g_TopFoods'
p390
(lp391
g164
ag202
ag169
ag142
ag135
ag166
ag37
ag144
ag45
ag177
ag174
ag171
ag127
ag170
ag180
ag53
ag167
ag96
ag148
ag43
ag149
ag105
ag161
ag162
ag133
ag173
ag165
ag27
ag178
ag33
ag179
ag145
ag69
ag176
ag63
ag42
ag56
ag11
ag97
ag172
ag175
ag151
ag29
ag55
ag61
ag78
ag31
ag152
ag141
ag62
ag150
ag71
ag59
ag35
ag60
ag92
ag22
ag39
ag160
ag111
ag12
ag163
ag64
ag25
ag140
ag28
ag44
ag159
ag146
ag147
ag109
ag110
ag99
ag54
ag102
ag36
ag118
ag103
ag5
ag108
ag112
ag80
ag204
ag194
ag16
ag14
ag85
ag104
ag131
ag38
ag130
ag134
ag74
ag98
ag139
ag48
ag113
ag40
ag46
ag195
ag21
ag41
ag117
ag57
ag7
ag190
ag70
ag8
ag218
ag72
ag129
ag24
ag154
ag18
ag19
ag20
ag211
ag220
ag157
ag90
ag221
ag10
ag223
ag49
ag212
ag209
ag207
ag83
ag192
ag81
ag23
ag213
ag75
ag156
ag82
ag217
ag184
ag210
ag153
ag197
ag136
ag51
ag216
ag191
ag219
ag198
ag77
ag193
ag181
ag87
ag182
ag200
ag222
ag84
ag32
ag201
ag158
ag6
ag88
ag196
ag214
ag52
ag76
ag206
ag122
ag132
ag168
ag17
ag187
ag188
ag143
ag186
ag115
ag185
ag114
ag215
ag205
ag26
ag225
ag224
ag101
ag100
ag34
ag189
ag95
ag13
ag47
ag106
ag107
ag73
ag121
ag128
ag9
ag79
ag120
ag138
ag30
ag183
ag203
ag86
ag89
ag137
ag50
ag199
ag155
ag58
ag208
ag65
ag126
ag66
ag67
ag68
ag15
ag91
ag94
ag116
ag4
ag119
ag93
ag3
ag123
ag124
ag125
ag226
atp392
sI57
(S'Beta_sitosterol_mg_TopFoods'
p393
(lp394
g42
ag160
ag148
ag159
ag161
ag29
ag133
ag140
ag141
ag179
ag172
ag90
ag53
ag189
ag6
ag215
ag34
ag18
ag30
ag83
ag84
ag85
ag86
ag87
ag88
ag89
ag51
ag70
ag81
ag72
ag71
ag61
ag69
ag56
ag27
ag55
ag21
ag40
ag59
ag49
ag80
ag58
ag137
ag192
ag193
ag194
ag195
ag196
ag197
ag198
ag199
ag200
ag201
ag203
ag79
ag183
ag138
ag120
ag136
ag73
ag23
ag75
ag76
ag77
ag78
ag60
ag62
ag33
ag127
ag128
ag41
ag129
ag11
ag19
ag17
ag132
ag95
ag22
ag135
ag44
ag117
ag115
ag105
ag114
ag96
ag97
ag26
ag16
ag46
ag31
ag101
ag126
ag125
ag63
ag67
ag9
ag39
ag111
ag35
ag191
ag24
ag20
ag65
ag13
ag66
ag68
ag124
ag15
ag91
ag94
ag116
ag4
ag119
ag93
ag121
ag3
ag123
ag38
ag226
ag190
ag177
ag147
ag14
ag145
ag144
ag143
ag142
ag174
ag57
ag202
ag163
ag164
ag165
ag166
ag43
ag167
ag168
ag169
ag170
ag162
ag171
ag173
ag37
ag175
ag25
ag28
ag204
ag100
ag113
ag112
ag110
ag109
ag108
ag107
ag106
ag104
ag103
ag102
ag99
ag74
ag98
ag134
ag131
ag130
ag122
ag118
ag92
ag64
ag54
ag82
ag176
ag178
ag188
ag180
ag212
ag48
ag213
ag214
ag207
ag216
ag218
ag219
ag220
ag221
ag47
ag222
ag223
ag52
ag224
ag225
ag217
ag206
ag205
ag36
ag185
ag186
ag187
ag211
ag210
ag209
ag152
ag32
ag10
ag7
ag5
ag8
ag146
ag149
ag150
ag151
ag45
ag153
ag208
ag154
ag155
ag156
ag157
ag158
ag181
ag50
ag139
ag182
ag184
ag12
atp395
sI58
(S'Betaine_mg_TopFoods'
p396
(lp397
g64
ag131
ag219
ag157
ag102
ag108
ag149
ag59
ag44
ag11
ag209
ag22
ag56
ag63
ag69
ag71
ag127
ag27
ag46
ag179
ag31
ag164
ag105
ag135
ag16
ag13
ag35
ag21
ag133
ag185
ag90
ag159
ag80
ag43
ag166
ag24
ag20
ag148
ag161
ag136
ag216
ag160
ag144
ag207
ag141
ag49
ag223
ag129
ag172
ag211
ag195
ag52
ag111
ag89
ag39
ag83
ag217
ag88
ag41
ag210
ag193
ag139
ag218
ag214
ag197
ag51
ag220
ag121
ag158
ag191
ag76
ag182
ag120
ag138
ag78
ag87
ag73
ag86
ag85
ag84
ag30
ag81
ag70
ag23
ag79
ag75
ag77
ag38
ag68
ag72
ag125
ag126
ag128
ag17
ag132
ag115
ag114
ag96
ag97
ag26
ag101
ag33
ag34
ag95
ag19
ag6
ag40
ag18
ag117
ag124
ag61
ag123
ag55
ag60
ag58
ag62
ag9
ag65
ag66
ag67
ag203
ag15
ag91
ag94
ag116
ag4
ag119
ag93
ag3
ag183
ag226
ag137
ag165
ag14
ag145
ag143
ag53
ag142
ag174
ag57
ag202
ag163
ag167
ag178
ag168
ag169
ag170
ag162
ag171
ag173
ag37
ag175
ag176
ag147
ag25
ag28
ag204
ag113
ag112
ag110
ag109
ag107
ag106
ag104
ag103
ag100
ag99
ag98
ag134
ag130
ag122
ag118
ag92
ag54
ag82
ag74
ag177
ag180
ag201
ag186
ag215
ag221
ag47
ag222
ag224
ag225
ag206
ag205
ag36
ag187
ag42
ag188
ag189
ag190
ag192
ag194
ag196
ag198
ag199
ag200
ag213
ag48
ag212
ag208
ag140
ag32
ag10
ag7
ag5
ag8
ag146
ag29
ag150
ag151
ag45
ag152
ag153
ag154
ag155
ag156
ag181
ag50
ag184
ag12
atp398
sI59
(S'Caffeine_mg_TopFoods'
p399
(lp400
g38
ag36
ag79
ag80
ag81
ag49
ag30
ag83
ag84
ag85
ag86
ag87
ag88
ag89
ag51
ag90
ag70
ag72
ag71
ag61
ag69
ag56
ag27
ag55
ag59
ag60
ag58
ag78
ag77
ag76
ag197
ag186
ag187
ag188
ag189
ag190
ag191
ag192
ag193
ag194
ag195
ag196
ag198
ag75
ag199
ag200
ag201
ag137
ag203
ag183
ag138
ag120
ag136
ag73
ag23
ag62
ag63
ag9
ag34
ag115
ag105
ag114
ag96
ag97
ag26
ag16
ag46
ag31
ag101
ag33
ag95
ag127
ag19
ag13
ag20
ag24
ag6
ag35
ag111
ag39
ag40
ag21
ag18
ag44
ag135
ag65
ag3
ag66
ag67
ag68
ag15
ag91
ag94
ag116
ag4
ag119
ag93
ag121
ag123
ag22
ag124
ag125
ag117
ag126
ag128
ag41
ag129
ag11
ag17
ag132
ag133
ag185
ag226
ag205
ag166
ag145
ag144
ag143
ag53
ag142
ag174
ag57
ag202
ag163
ag164
ag165
ag43
ag147
ag167
ag168
ag169
ag170
ag162
ag171
ag173
ag37
ag175
ag176
ag177
ag14
ag25
ag179
ag99
ag113
ag112
ag110
ag109
ag108
ag107
ag106
ag104
ag103
ag102
ag100
ag98
ag28
ag134
ag131
ag130
ag122
ag118
ag92
ag64
ag54
ag82
ag74
ag204
ag178
ag180
ag206
ag207
ag182
ag184
ag208
ag209
ag210
ag211
ag212
ag48
ag213
ag214
ag215
ag216
ag50
ag218
ag219
ag220
ag221
ag47
ag222
ag223
ag52
ag224
ag225
ag217
ag139
ag181
ag172
ag146
ag161
ag42
ag160
ag159
ag140
ag141
ag32
ag10
ag7
ag5
ag8
ag29
ag158
ag148
ag149
ag150
ag151
ag45
ag152
ag153
ag154
ag155
ag156
ag157
ag12
atp401
sI60
(S'Calcium_Ca_mg_TopFoods'
p402
(lp403
g17
ag44
ag133
ag97
ag135
ag46
ag150
ag26
ag34
ag13
ag33
ag145
ag95
ag16
ag152
ag12
ag22
ag142
ag101
ag31
ag164
ag148
ag105
ag179
ag211
ag114
ag177
ag127
ag205
ag221
ag202
ag40
ag117
ag78
ag173
ag115
ag21
ag48
ag129
ag169
ag96
ag11
ag80
ag168
ag178
ag171
ag174
ag167
ag165
ag35
ag24
ag18
ag19
ag208
ag141
ag20
ag132
ag170
ag42
ag157
ag172
ag166
ag226
ag140
ag184
ag176
ag57
ag149
ag151
ag224
ag159
ag215
ag187
ag146
ag223
ag41
ag186
ag161
ag37
ag162
ag163
ag39
ag92
ag180
ag144
ag9
ag53
ag64
ag218
ag43
ag45
ag143
ag28
ag216
ag198
ag199
ag49
ag220
ag197
ag29
ag109
ag210
ag81
ag204
ag136
ag100
ag102
ag104
ag137
ag138
ag207
ag118
ag147
ag108
ag155
ag50
ag107
ag89
ag194
ag125
ag110
ag120
ag5
ag185
ag139
ag158
ag79
ag225
ag134
ag131
ag32
ag6
ag128
ag74
ag23
ag182
ag206
ag181
ag106
ag196
ag14
ag70
ag188
ag73
ag183
ag84
ag25
ag154
ag75
ag55
ag156
ag98
ag217
ag212
ag10
ag160
ag219
ag214
ag192
ag175
ag36
ag8
ag99
ag85
ag72
ag69
ag191
ag63
ag38
ag60
ag90
ag77
ag7
ag58
ag201
ag103
ag153
ag86
ag126
ag189
ag76
ag62
ag130
ag56
ag61
ag30
ag213
ag193
ag54
ag82
ag83
ag59
ag52
ag111
ag112
ag113
ag195
ag200
ag190
ag88
ag71
ag222
ag122
ag203
ag51
ag27
ag209
ag87
ag47
ag3
ag121
ag66
ag65
ag91
ag67
ag15
ag94
ag116
ag4
ag119
ag93
ag123
ag124
ag68
atp404
sI61
(S'Campesterol_mg_TopFoods'
p405
(lp406
g179
ag133
ag160
ag42
ag29
ag140
ag141
ag159
ag53
ag90
ag148
ag161
ag172
ag209
ag189
ag33
ag21
ag30
ag18
ag83
ag84
ag85
ag86
ag87
ag88
ag89
ag51
ag70
ag81
ag72
ag71
ag61
ag69
ag56
ag27
ag55
ag40
ag39
ag59
ag49
ag80
ag58
ag137
ag192
ag193
ag194
ag195
ag196
ag197
ag198
ag199
ag200
ag201
ag203
ag79
ag183
ag138
ag120
ag136
ag73
ag23
ag75
ag76
ag77
ag78
ag60
ag62
ag101
ag135
ag126
ag128
ag41
ag129
ag11
ag95
ag17
ag132
ag34
ag22
ag127
ag125
ag44
ag115
ag105
ag114
ag96
ag97
ag26
ag16
ag46
ag31
ag117
ag124
ag63
ag66
ag9
ag111
ag35
ag6
ag24
ag191
ag20
ag13
ag65
ag19
ag67
ag123
ag68
ag15
ag91
ag94
ag116
ag4
ag119
ag93
ag121
ag3
ag38
ag226
ag190
ag177
ag147
ag14
ag145
ag144
ag143
ag142
ag174
ag57
ag202
ag163
ag164
ag165
ag166
ag43
ag167
ag168
ag169
ag170
ag162
ag171
ag173
ag37
ag175
ag25
ag28
ag204
ag100
ag113
ag112
ag110
ag109
ag108
ag107
ag106
ag104
ag103
ag102
ag99
ag74
ag98
ag134
ag131
ag130
ag122
ag118
ag92
ag64
ag54
ag82
ag176
ag178
ag188
ag180
ag48
ag213
ag214
ag215
ag207
ag216
ag218
ag219
ag220
ag221
ag47
ag222
ag223
ag52
ag224
ag225
ag217
ag206
ag205
ag36
ag185
ag186
ag187
ag212
ag211
ag210
ag152
ag32
ag10
ag7
ag5
ag8
ag146
ag149
ag150
ag151
ag45
ag153
ag208
ag154
ag155
ag156
ag157
ag158
ag181
ag50
ag139
ag182
ag184
ag12
atp407
sI62
(S'Carbohydrate_by_difference_g_TopFoods'
p408
(lp409
g30
ag46
ag130
ag187
ag183
ag186
ag146
ag109
ag74
ag78
ag113
ag38
ag103
ag118
ag204
ag131
ag134
ag100
ag36
ag49
ag223
ag34
ag104
ag108
ag112
ag147
ag107
ag54
ag98
ag99
ag102
ag25
ag137
ag28
ag110
ag44
ag101
ag11
ag92
ag16
ag132
ag64
ag173
ag22
ag17
ag80
ag53
ag162
ag165
ag167
ag224
ag174
ag43
ag168
ag194
ag170
ag171
ag96
ag143
ag127
ag97
ag106
ag135
ag114
ag95
ag33
ag31
ag115
ag26
ag152
ag142
ag169
ag47
ag151
ag122
ag192
ag48
ag202
ag29
ag164
ag179
ag133
ag105
ag188
ag156
ag42
ag163
ag144
ag5
ag225
ag150
ag23
ag82
ag51
ag70
ag148
ag149
ag206
ag84
ag81
ag189
ag76
ag212
ag125
ag141
ag203
ag166
ag85
ag73
ag180
ag193
ag8
ag201
ag136
ag88
ag139
ag75
ag222
ag159
ag140
ag172
ag86
ag197
ag191
ag160
ag126
ag50
ag57
ag83
ag185
ag198
ag190
ag205
ag72
ag196
ag45
ag138
ag79
ag199
ag89
ag207
ag161
ag219
ag195
ag154
ag182
ag120
ag200
ag155
ag90
ag117
ag12
ag77
ag217
ag40
ag52
ag184
ag21
ag220
ag87
ag7
ag218
ag181
ag213
ag41
ag216
ag10
ag24
ag19
ag20
ag208
ag18
ag226
ag211
ag221
ag32
ag215
ag157
ag214
ag35
ag158
ag209
ag153
ag210
ag145
ag129
ag13
ag62
ag61
ag111
ag59
ag39
ag60
ag6
ag71
ag175
ag37
ag14
ag27
ag176
ag177
ag56
ag69
ag178
ag68
ag55
ag3
ag91
ag94
ag116
ag4
ag119
ag93
ag121
ag123
ag15
ag124
ag67
ag66
ag65
ag9
ag63
ag58
ag128
atp410
sI63
(S'Carotene_alpha_mcg_TopFoods'
p411
(lp412
g181
ag207
ag31
ag127
ag197
ag220
ag35
ag215
ag216
ag184
ag188
ag218
ag51
ag87
ag90
ag154
ag139
ag44
ag72
ag135
ag185
ag22
ag199
ag214
ag59
ag198
ag42
ag208
ag201
ag33
ag23
ag77
ag141
ag194
ag196
ag45
ag192
ag193
ag76
ag41
ag46
ag120
ag78
ag136
ag195
ag200
ag70
ag137
ag203
ag183
ag138
ag89
ag88
ag86
ag79
ag73
ag85
ag84
ag83
ag30
ag61
ag49
ag75
ag81
ag80
ag71
ag38
ag69
ag129
ag17
ag132
ag133
ag115
ag105
ag114
ag96
ag97
ag26
ag16
ag101
ag34
ag95
ag19
ag13
ag20
ag24
ag6
ag111
ag39
ag40
ag21
ag18
ag11
ag128
ag56
ag126
ag27
ag55
ag58
ag62
ag63
ag9
ag65
ag66
ag67
ag68
ag15
ag91
ag94
ag116
ag4
ag119
ag93
ag121
ag3
ag123
ag124
ag125
ag117
ag60
ag226
ag191
ag163
ag147
ag14
ag145
ag144
ag143
ag53
ag142
ag174
ag57
ag202
ag164
ag28
ag165
ag166
ag43
ag167
ag168
ag169
ag170
ag162
ag171
ag173
ag25
ag204
ag175
ag100
ag113
ag112
ag110
ag109
ag108
ag107
ag106
ag104
ag103
ag102
ag99
ag74
ag98
ag134
ag131
ag130
ag122
ag118
ag92
ag64
ag54
ag82
ag37
ag176
ag190
ag222
ag182
ag209
ag210
ag211
ag212
ag48
ag213
ag219
ag221
ag47
ag223
ag158
ag52
ag224
ag225
ag217
ag206
ag205
ag36
ag186
ag187
ag189
ag50
ag157
ag177
ag7
ag178
ag179
ag180
ag172
ag161
ag160
ag159
ag140
ag32
ag10
ag5
ag156
ag8
ag146
ag29
ag148
ag149
ag150
ag151
ag152
ag153
ag155
ag12
atp413
sI64
(S'Carotene_beta_mcg_TopFoods'
p414
(lp415
g127
ag31
ag207
ag157
ag210
ag215
ag129
ag181
ag211
ag17
ag208
ag135
ag72
ag194
ag44
ag70
ag26
ag154
ag201
ag77
ag139
ag184
ag220
ag75
ag218
ag22
ag42
ag52
ag196
ag33
ag190
ag188
ag195
ag6
ag197
ag89
ag46
ag9
ag43
ag223
ag35
ag81
ag183
ag156
ag202
ag198
ag167
ag90
ag226
ag23
ag59
ag136
ag163
ag41
ag16
ag214
ag216
ag162
ag76
ag83
ag85
ag53
ag191
ag88
ag149
ag170
ag200
ag138
ag159
ag115
ag222
ag30
ag51
ag143
ag87
ag161
ag192
ag13
ag219
ag224
ag105
ag160
ag193
ag213
ag164
ag147
ag185
ag172
ag141
ag109
ag45
ag199
ag64
ag131
ag217
ag19
ag20
ag49
ag80
ag100
ag150
ag204
ag102
ag48
ag18
ag110
ag158
ag120
ag24
ag21
ag113
ag148
ag106
ag182
ag69
ag27
ag40
ag95
ag56
ag39
ag71
ag61
ag34
ag111
ag60
ag101
ag97
ag116
ag119
ag91
ag93
ag121
ag3
ag15
ag123
ag124
ag125
ag68
ag117
ag67
ag126
ag128
ag11
ag66
ag65
ag132
ag133
ag63
ag62
ag58
ag4
ag114
ag96
ag55
ag94
ag38
ag86
ag165
ag14
ag145
ag144
ag142
ag174
ag57
ag166
ag84
ag168
ag169
ag171
ag173
ag37
ag175
ag25
ag28
ag74
ag82
ag54
ag92
ag118
ag122
ag130
ag134
ag98
ag99
ag103
ag104
ag107
ag108
ag112
ag176
ag177
ag178
ag212
ag79
ag78
ag73
ag203
ag137
ag189
ag187
ag186
ag36
ag205
ag206
ag225
ag47
ag221
ag209
ag179
ag50
ag155
ag153
ag152
ag151
ag29
ag146
ag8
ag5
ag7
ag10
ag32
ag140
ag180
ag12
atp416
sI65
(S'Cholesterol_mg_TopFoods'
p417
(lp418
g35
ag66
ag65
ag39
ag59
ag61
ag62
ag58
ag6
ag60
ag9
ag56
ag14
ag71
ag177
ag37
ag55
ag175
ag27
ag63
ag13
ag176
ag12
ag178
ag69
ag18
ag19
ag20
ag21
ag24
ag40
ag200
ag90
ag197
ag196
ag195
ag194
ag51
ag192
ag70
ag72
ag193
ag88
ag191
ag190
ag189
ag89
ag87
ag201
ag86
ag137
ag203
ag183
ag138
ag199
ag120
ag136
ag73
ag23
ag75
ag76
ag198
ag78
ag79
ag80
ag81
ag49
ag30
ag83
ag84
ag85
ag77
ag68
ag67
ag97
ag22
ag135
ag127
ag44
ag115
ag105
ag114
ag96
ag26
ag187
ag16
ag46
ag31
ag101
ag33
ag34
ag95
ag111
ag133
ag132
ag17
ag11
ag15
ag91
ag94
ag116
ag4
ag119
ag93
ag121
ag3
ag123
ag124
ag125
ag117
ag126
ag128
ag41
ag129
ag188
ag38
ag186
ag166
ag145
ag144
ag143
ag53
ag142
ag174
ag57
ag202
ag163
ag164
ag165
ag43
ag185
ag167
ag168
ag169
ag170
ag162
ag171
ag173
ag179
ag180
ag172
ag161
ag147
ag25
ag28
ag204
ag113
ag112
ag110
ag109
ag108
ag107
ag106
ag104
ag103
ag102
ag100
ag99
ag98
ag134
ag131
ag130
ag122
ag118
ag92
ag64
ag54
ag82
ag74
ag42
ag160
ag159
ag208
ag210
ag211
ag212
ag48
ag213
ag214
ag215
ag207
ag216
ag218
ag219
ag220
ag221
ag47
ag222
ag223
ag52
ag224
ag225
ag217
ag206
ag205
ag36
ag209
ag184
ag140
ag182
ag141
ag32
ag10
ag7
ag5
ag8
ag146
ag29
ag148
ag149
ag150
ag151
ag45
ag152
ag153
ag154
ag155
ag156
ag157
ag158
ag181
ag50
ag139
ag226
atp419
sI66
(S'Choline_total_mg_TopFoods'
p420
(lp421
g35
ag91
ag39
ag59
ag202
ag43
ag105
ag164
ag162
ag167
ag135
ag170
ag37
ag177
ag27
ag179
ag163
ag64
ag31
ag69
ag63
ag144
ag45
ag71
ag160
ag149
ag28
ag166
ag148
ag127
ag11
ag56
ag141
ag17
ag159
ag172
ag108
ag16
ag44
ag161
ag102
ag131
ag212
ag139
ag204
ag150
ag26
ag33
ag48
ag41
ag5
ag113
ag134
ag157
ag6
ag218
ag183
ag24
ag209
ag156
ag80
ag13
ag220
ag18
ag21
ag40
ag19
ag20
ag90
ag210
ag9
ag215
ag137
ag194
ag185
ag184
ag199
ag8
ag129
ag22
ag192
ag186
ag154
ag187
ag46
ag216
ag197
ag223
ag51
ag207
ag115
ag133
ag224
ag10
ag89
ag198
ag30
ag181
ag106
ag136
ag77
ag200
ag201
ag87
ag75
ag189
ag203
ag213
ag158
ag49
ag226
ag85
ag182
ag196
ag195
ag219
ag88
ag214
ag130
ag217
ag76
ag191
ag83
ag120
ag193
ag138
ag70
ag81
ag188
ag52
ag222
ag82
ag72
ag190
ag32
ag111
ag211
ag208
ag94
ag3
ag121
ag93
ag4
ag67
ag119
ag123
ag101
ag97
ag95
ag34
ag62
ag96
ag66
ag114
ag132
ag65
ag128
ag126
ag117
ag116
ag15
ag125
ag124
ag58
ag68
ag38
ag60
ag74
ag169
ag168
ag165
ag57
ag174
ag142
ag53
ag143
ag145
ag14
ag147
ag25
ag54
ag55
ag92
ag118
ag122
ag98
ag99
ag100
ag103
ag104
ag107
ag109
ag110
ag112
ag171
ag173
ag175
ag176
ag61
ag86
ag84
ag79
ag78
ag23
ag73
ag36
ag205
ag206
ag225
ag47
ag221
ag50
ag155
ag153
ag152
ag151
ag29
ag146
ag7
ag140
ag42
ag180
ag178
ag12
atp422
sI67
(S'Copper_Cu_mg_TopFoods'
p423
(lp424
g150
ag202
ag142
ag114
ag29
ag149
ag151
ag141
ag164
ag133
ag172
ag161
ag45
ag22
ag160
ag53
ag11
ag42
ag179
ag159
ag166
ag96
ag25
ag97
ag165
ag148
ag115
ag169
ag31
ag171
ag167
ag152
ag143
ag33
ag95
ag174
ag26
ag17
ag170
ag43
ag5
ag135
ag140
ag54
ag127
ag168
ag180
ag162
ag146
ag105
ag44
ag137
ag92
ag64
ag144
ag36
ag28
ag110
ag147
ag107
ag59
ag173
ag8
ag100
ag50
ag163
ag34
ag102
ag129
ag101
ag7
ag145
ag16
ag131
ag194
ag223
ag60
ag108
ag46
ag177
ag204
ag134
ag132
ag209
ag112
ag48
ag80
ag99
ag118
ag186
ag109
ag61
ag10
ag38
ag74
ag62
ag117
ag113
ag103
ag75
ag187
ag212
ag215
ag178
ag86
ag49
ag57
ag104
ag90
ag98
ag192
ag156
ag139
ag154
ag208
ag89
ag221
ag183
ag189
ag203
ag87
ag130
ag136
ag157
ag76
ag181
ag188
ag106
ag70
ag47
ag58
ag201
ag191
ag184
ag153
ag176
ag185
ag224
ag225
ag206
ag155
ag193
ag213
ag51
ag72
ag37
ag35
ag23
ag219
ag41
ag126
ag39
ag81
ag79
ag220
ag195
ag84
ag71
ag138
ag30
ag85
ag56
ag55
ag199
ag14
ag190
ag88
ag83
ag63
ag211
ag158
ag218
ag122
ag217
ag77
ag198
ag207
ag196
ag52
ag197
ag214
ag69
ag82
ag32
ag182
ag120
ag27
ag175
ag12
ag128
ag210
ag222
ag125
ag20
ag13
ag19
ag200
ag111
ag226
ag216
ag6
ag40
ag21
ag24
ag18
ag94
ag93
ag124
ag123
ag3
ag121
ag119
ag91
ag205
ag4
ag73
ag78
ag116
ag65
ag66
ag67
ag68
ag15
ag9
atp425
sI68
(S'Cryptoxanthin_beta_mcg_TopFoods'
p426
(lp427
g127
ag31
ag196
ag194
ag197
ag215
ag46
ag198
ag72
ag16
ag52
ag195
ag115
ag154
ag129
ag188
ag208
ag190
ag17
ag35
ag90
ag211
ag41
ag214
ag22
ag120
ag33
ag222
ag59
ag201
ag39
ag159
ag44
ag77
ag23
ag135
ag192
ag193
ag13
ag113
ag45
ag64
ag218
ag83
ag89
ag88
ag87
ag51
ag200
ag70
ag86
ag85
ag84
ag79
ag30
ag49
ag81
ag80
ag78
ag199
ag76
ag137
ag203
ag73
ag136
ag183
ag71
ag138
ag75
ag38
ag61
ag125
ag126
ag128
ag11
ag132
ag133
ag105
ag114
ag96
ag97
ag26
ag101
ag34
ag95
ag19
ag20
ag24
ag6
ag111
ag40
ag21
ag18
ag117
ag124
ag69
ag123
ag56
ag27
ag55
ag60
ag58
ag191
ag63
ag9
ag65
ag66
ag67
ag68
ag15
ag91
ag94
ag116
ag4
ag119
ag93
ag121
ag3
ag62
ag226
ag189
ag187
ag145
ag144
ag143
ag53
ag142
ag174
ag57
ag202
ag163
ag164
ag165
ag166
ag43
ag167
ag168
ag169
ag170
ag162
ag171
ag173
ag37
ag175
ag176
ag14
ag147
ag25
ag99
ag112
ag110
ag109
ag108
ag107
ag106
ag104
ag103
ag102
ag100
ag98
ag28
ag134
ag131
ag130
ag122
ag118
ag92
ag54
ag82
ag74
ag204
ag177
ag178
ag179
ag220
ag182
ag184
ag209
ag210
ag212
ag48
ag213
ag207
ag216
ag219
ag221
ag50
ag47
ag223
ag224
ag225
ag217
ag206
ag205
ag36
ag185
ag186
ag139
ag181
ag180
ag8
ag172
ag161
ag42
ag160
ag140
ag141
ag32
ag10
ag7
ag5
ag146
ag158
ag29
ag148
ag149
ag150
ag151
ag152
ag153
ag155
ag156
ag157
ag12
atp428
sI69
(S'Cystine_g_TopFoods'
p429
(lp430
g105
ag164
ag202
ag142
ag161
ag149
ag169
ag180
ag92
ag152
ag29
ag96
ag104
ag74
ag98
ag150
ag179
ag45
ag166
ag110
ag33
ag53
ag151
ag177
ag135
ag133
ag42
ag160
ag111
ag204
ag69
ag162
ag141
ag147
ag102
ag63
ag43
ag59
ag39
ag174
ag35
ag170
ag171
ag165
ag55
ag61
ag62
ag27
ag108
ag127
ag25
ag56
ag144
ag97
ag28
ag178
ag148
ag54
ag60
ag167
ag172
ag173
ag64
ag176
ag37
ag175
ag71
ag31
ag36
ag112
ag38
ag146
ag109
ag159
ag11
ag78
ag22
ag5
ag99
ag12
ag113
ag168
ag44
ag82
ag130
ag118
ag103
ag207
ag14
ag41
ag7
ag16
ag49
ag8
ag48
ag46
ag145
ag40
ag21
ag223
ag10
ag57
ag211
ag154
ag80
ag117
ag157
ag139
ag18
ag136
ag221
ag194
ag218
ag129
ag90
ag19
ag24
ag156
ag20
ag184
ag219
ag220
ag23
ag210
ag191
ag32
ag153
ag195
ag81
ag209
ag216
ag76
ag198
ag85
ag158
ag51
ag192
ag6
ag88
ag212
ag70
ag213
ag77
ag140
ag217
ag84
ag200
ag182
ag214
ag83
ag181
ag72
ag52
ag193
ag197
ag190
ag222
ag115
ag225
ag224
ag122
ag205
ag206
ag131
ag132
ag17
ag155
ag185
ag186
ag114
ag75
ag134
ag26
ag100
ag101
ag126
ag47
ag34
ag95
ag215
ag13
ag106
ag107
ag208
ag50
ag128
ag121
ag187
ag58
ag189
ag196
ag199
ag201
ag89
ag137
ag87
ag86
ag203
ag30
ag183
ag138
ag120
ag79
ag73
ag163
ag188
ag125
ag143
ag124
ag123
ag3
ag93
ag119
ag4
ag116
ag94
ag91
ag15
ag68
ag67
ag66
ag65
ag9
ag226
atp431
sI70
(S'Dihydrophylloquinone_mcg_TopFoods'
p432
(lp433
g209
ag39
ag35
ag38
ag89
ag79
ag80
ag81
ag49
ag30
ag83
ag84
ag85
ag86
ag87
ag88
ag51
ag77
ag90
ag70
ag72
ag71
ag61
ag69
ag56
ag27
ag55
ag59
ag60
ag78
ag75
ag76
ag62
ag187
ag188
ag189
ag190
ag191
ag192
ag193
ag194
ag195
ag196
ag197
ag198
ag199
ag200
ag201
ag137
ag203
ag183
ag138
ag120
ag136
ag73
ag23
ag58
ag63
ag185
ag101
ag127
ag44
ag115
ag105
ag114
ag96
ag97
ag26
ag16
ag46
ag31
ag33
ag9
ag34
ag95
ag19
ag13
ag20
ag24
ag6
ag111
ag40
ag21
ag18
ag135
ag22
ag133
ag132
ag65
ag66
ag67
ag68
ag15
ag91
ag94
ag116
ag4
ag119
ag93
ag121
ag3
ag123
ag124
ag125
ag117
ag126
ag128
ag41
ag129
ag11
ag17
ag186
ag226
ag36
ag166
ag145
ag144
ag143
ag53
ag142
ag174
ag57
ag202
ag163
ag164
ag165
ag43
ag147
ag167
ag168
ag169
ag170
ag162
ag171
ag173
ag37
ag175
ag176
ag177
ag14
ag25
ag179
ag99
ag113
ag112
ag110
ag109
ag108
ag107
ag106
ag104
ag103
ag102
ag100
ag98
ag28
ag134
ag131
ag130
ag122
ag118
ag92
ag64
ag54
ag82
ag74
ag204
ag178
ag180
ag205
ag216
ag182
ag184
ag208
ag210
ag211
ag212
ag48
ag213
ag214
ag215
ag207
ag218
ag50
ag219
ag220
ag221
ag47
ag222
ag223
ag52
ag224
ag225
ag217
ag206
ag139
ag181
ag172
ag146
ag161
ag42
ag160
ag159
ag140
ag141
ag32
ag10
ag7
ag5
ag8
ag29
ag158
ag148
ag149
ag150
ag151
ag45
ag152
ag153
ag154
ag155
ag156
ag157
ag12
atp434
sI71
(S'Energy_kJ_TopFoods'
p435
(lp436
g65
ag66
ag3
ag15
ag116
ag93
ag94
ag124
ag121
ag123
ag67
ag119
ag68
ag4
ag91
ag140
ag6
ag159
ag160
ag14
ag5
ag172
ag141
ag161
ag144
ag149
ag148
ag150
ag166
ag42
ag45
ag180
ag29
ag179
ag115
ag133
ag106
ag151
ag105
ag9
ag152
ag114
ag164
ag202
ag142
ag92
ag143
ag36
ag54
ag162
ag74
ag26
ag169
ag146
ag64
ag104
ag130
ag112
ag43
ag103
ag118
ag109
ag113
ag98
ag38
ag53
ag147
ag8
ag107
ag78
ag134
ag167
ag174
ag108
ag97
ag173
ag25
ag168
ag165
ag204
ag102
ag100
ag131
ag110
ag95
ag170
ag28
ag171
ag33
ag12
ag7
ag99
ag96
ag35
ag183
ag34
ag11
ag101
ag13
ag132
ag30
ag187
ag186
ag135
ag126
ag127
ag31
ag49
ag223
ag137
ag17
ag16
ag44
ag22
ag80
ag46
ag194
ag224
ag10
ag177
ag163
ag90
ag60
ag47
ag122
ag48
ag145
ag39
ag71
ag55
ag37
ag178
ag61
ag192
ag69
ag62
ag27
ag56
ag63
ag59
ag156
ag176
ag82
ag188
ag175
ag23
ag58
ag225
ag51
ag125
ag70
ag206
ag189
ag139
ag212
ag57
ag84
ag81
ag76
ag75
ag203
ag21
ag85
ag19
ag86
ag18
ag20
ag136
ag41
ag73
ag201
ag222
ag50
ag88
ag193
ag40
ag197
ag185
ag111
ag191
ag205
ag72
ag198
ag190
ag83
ag117
ag79
ag89
ag219
ag199
ag196
ag24
ag207
ag154
ag182
ag195
ag155
ag200
ag211
ag218
ag184
ag217
ag77
ag220
ag87
ag52
ag138
ag120
ag208
ag181
ag213
ag216
ag157
ag221
ag215
ag129
ag209
ag226
ag32
ag158
ag214
ag153
ag210
ag128
atp437
sI72
(S'Energy_kcal_TopFoods'
p438
(lp439
g65
ag66
ag3
ag15
ag116
ag93
ag94
ag124
ag121
ag123
ag67
ag119
ag68
ag4
ag91
ag140
ag6
ag159
ag160
ag14
ag5
ag172
ag141
ag161
ag144
ag149
ag148
ag150
ag166
ag42
ag45
ag180
ag29
ag179
ag115
ag133
ag106
ag151
ag105
ag9
ag152
ag114
ag164
ag202
ag142
ag92
ag143
ag36
ag162
ag54
ag74
ag26
ag169
ag146
ag64
ag104
ag130
ag112
ag43
ag103
ag118
ag109
ag113
ag98
ag38
ag53
ag147
ag8
ag107
ag78
ag134
ag167
ag174
ag108
ag97
ag173
ag25
ag168
ag165
ag204
ag100
ag102
ag131
ag110
ag95
ag170
ag28
ag171
ag33
ag12
ag7
ag99
ag96
ag35
ag183
ag34
ag11
ag101
ag132
ag13
ag30
ag187
ag186
ag135
ag126
ag31
ag127
ag49
ag223
ag137
ag17
ag16
ag44
ag22
ag80
ag46
ag224
ag194
ag10
ag177
ag163
ag90
ag60
ag47
ag122
ag48
ag145
ag39
ag71
ag55
ag37
ag178
ag61
ag192
ag69
ag62
ag56
ag27
ag59
ag63
ag156
ag176
ag82
ag188
ag175
ag23
ag225
ag58
ag51
ag125
ag70
ag206
ag189
ag139
ag212
ag57
ag84
ag81
ag76
ag75
ag203
ag21
ag85
ag86
ag19
ag136
ag18
ag20
ag41
ag201
ag73
ag222
ag50
ag88
ag193
ag40
ag197
ag111
ag185
ag191
ag205
ag72
ag198
ag83
ag190
ag117
ag79
ag199
ag219
ag196
ag89
ag24
ag207
ag154
ag182
ag195
ag155
ag200
ag211
ag218
ag184
ag217
ag77
ag220
ag87
ag52
ag138
ag120
ag208
ag181
ag216
ag213
ag129
ag221
ag157
ag215
ag209
ag226
ag32
ag158
ag153
ag214
ag210
ag128
atp440
sI73
(S'monounsaturated_Fatty_acids_total_g_TopFoods'
p441
(lp442
g67
ag121
ag94
ag68
ag140
ag66
ag123
ag141
ag15
ag159
ag119
ag124
ag93
ag148
ag14
ag65
ag166
ag29
ag6
ag42
ag105
ag144
ag116
ag160
ag150
ag149
ag45
ag9
ag161
ag26
ag35
ag4
ag114
ag91
ag97
ag90
ag95
ag172
ag106
ag179
ag180
ag12
ag33
ag13
ag3
ag142
ag133
ag151
ag202
ag164
ag169
ag177
ag39
ag71
ag115
ag31
ag5
ag60
ag152
ag41
ag92
ag145
ag55
ag127
ag34
ag64
ag143
ag7
ag56
ag176
ag8
ag16
ag162
ag146
ag61
ag112
ag59
ag178
ag99
ag62
ag163
ag25
ag113
ag10
ag103
ag37
ag118
ag28
ag38
ag36
ag63
ag18
ag101
ag69
ag19
ag20
ag54
ag135
ag22
ag44
ag27
ag175
ag43
ag206
ag58
ag53
ag17
ag11
ag110
ag130
ag132
ag21
ag183
ag107
ag137
ag30
ag57
ag147
ag102
ag194
ag24
ag215
ag109
ag46
ag100
ag131
ag108
ag134
ag224
ag204
ag72
ag167
ag80
ag23
ag212
ag201
ag173
ag190
ag168
ag98
ag203
ag104
ag174
ag225
ag170
ag211
ag155
ag189
ag208
ag74
ag129
ag75
ag193
ag188
ag221
ag196
ag195
ag81
ag171
ag192
ag185
ag197
ag79
ag40
ag88
ag136
ag85
ag89
ag217
ag199
ag153
ag226
ag52
ag49
ag139
ag219
ag51
ag218
ag87
ag70
ag117
ag186
ag198
ag82
ag47
ag138
ag83
ag184
ag158
ag216
ag213
ag187
ag191
ag77
ag182
ag181
ag84
ag207
ag165
ag154
ag48
ag120
ag220
ag157
ag126
ag32
ag76
ag156
ag210
ag214
ag200
ag50
ag111
ag222
ag96
ag223
ag205
ag73
ag122
ag78
ag86
ag128
ag125
ag209
atp443
sI74
(S'polyunsaturated_Fatty_acids_total_g_TopFoods'
p444
(lp445
g116
ag172
ag91
ag119
ag65
ag161
ag124
ag160
ag123
ag179
ag133
ag151
ag180
ag152
ag149
ag66
ag150
ag159
ag68
ag45
ag94
ag106
ag166
ag42
ag148
ag202
ag144
ag164
ag121
ag105
ag93
ag31
ag141
ag29
ag127
ag14
ag15
ag145
ag114
ag142
ag35
ag67
ag16
ag64
ag26
ag33
ag95
ag135
ag6
ag143
ag163
ag162
ag60
ag36
ag177
ag92
ag169
ag34
ag112
ag54
ag132
ag9
ag39
ag90
ag113
ag3
ag97
ag178
ag4
ag99
ag146
ag71
ag140
ag55
ag38
ag44
ag59
ag183
ag37
ag110
ag173
ag61
ag17
ag102
ag13
ag53
ag107
ag147
ag62
ag176
ag25
ag43
ag22
ag103
ag56
ag118
ag109
ag28
ag100
ag165
ag69
ag175
ag41
ag108
ag131
ag11
ag57
ag63
ag168
ag12
ag5
ag134
ag211
ag174
ag170
ag204
ag171
ag101
ag98
ag104
ag27
ag75
ag117
ag129
ag167
ag7
ag130
ag185
ag194
ag8
ag137
ag58
ag115
ag80
ag79
ag136
ag89
ag10
ag74
ag48
ag199
ag19
ag20
ag139
ag87
ag30
ag157
ag209
ag217
ag212
ag221
ag88
ag81
ag203
ag220
ag218
ag154
ag153
ag207
ag226
ag23
ag193
ag18
ag120
ag84
ag195
ag210
ag189
ag72
ag213
ag156
ag51
ag192
ag201
ag46
ag197
ag82
ag219
ag200
ag224
ag196
ag187
ag138
ag83
ag186
ag85
ag52
ag158
ag76
ag21
ag190
ag50
ag191
ag215
ag225
ag208
ag24
ag214
ag47
ag184
ag188
ag70
ag198
ag77
ag49
ag182
ag216
ag206
ag40
ag181
ag126
ag155
ag32
ag122
ag96
ag73
ag78
ag128
ag111
ag125
ag86
ag205
ag223
ag222
atp446
sI75
(S'saturated_Fatty_acids_total_g_TopFoods'
p447
(lp448
g3
ag4
ag5
ag6
ag93
ag15
ag9
ag14
ag7
ag8
ag115
ag66
ag10
ag65
ag124
ag123
ag12
ag91
ag119
ag121
ag13
ag116
ag140
ag68
ag67
ag180
ag35
ag144
ag114
ag45
ag94
ag29
ag150
ag166
ag159
ag172
ag42
ag106
ag160
ag133
ag141
ag149
ag16
ag148
ag151
ag179
ag161
ag152
ag39
ag202
ag164
ag17
ag60
ag31
ag142
ag71
ag34
ag177
ag127
ag90
ag18
ag105
ag19
ag20
ag11
ag61
ag132
ag59
ag44
ag26
ag55
ag96
ag22
ag135
ag62
ag178
ag145
ag92
ag169
ag56
ag163
ag21
ag69
ag63
ag176
ag37
ag25
ag146
ag54
ag64
ag143
ag101
ag28
ag112
ag24
ag33
ag99
ag162
ag95
ag27
ag103
ag113
ag36
ag118
ag58
ag38
ag175
ag147
ag97
ag102
ag107
ag43
ag110
ag130
ag109
ag53
ag100
ag168
ag167
ag46
ag174
ag108
ag170
ag165
ag224
ag75
ag137
ag204
ag173
ag41
ag212
ag183
ag131
ag23
ag206
ag57
ag117
ag134
ag211
ag32
ag104
ag98
ag80
ag47
ag171
ag189
ag74
ag40
ag218
ag51
ag203
ag186
ag201
ag221
ag48
ag30
ag194
ag196
ag139
ag187
ag157
ag81
ag76
ag226
ag181
ag209
ag220
ag225
ag84
ag182
ag129
ag120
ag197
ag200
ag85
ag79
ag156
ag214
ag153
ag216
ag213
ag155
ag49
ag207
ag158
ag82
ag136
ag88
ag219
ag199
ag72
ag184
ag50
ag138
ag193
ag154
ag210
ag87
ag195
ag185
ag192
ag190
ag52
ag217
ag198
ag215
ag89
ag77
ag208
ag188
ag126
ag191
ag83
ag70
ag205
ag223
ag111
ag128
ag73
ag86
ag122
ag222
ag125
ag78
atp449
sI76
(S'trans_Fatty_acids_total_g_TopFoods'
p450
(lp451
g13
ag16
ag152
ag106
ag69
ag59
ag71
ag45
ag58
ag11
ag39
ag3
ag37
ag148
ag56
ag41
ag27
ag99
ag43
ag38
ag30
ag47
ag36
ag107
ag186
ag137
ag90
ag87
ag197
ag88
ag89
ag51
ag196
ag70
ag195
ag194
ag85
ag72
ag61
ag193
ag192
ag55
ag86
ag198
ag203
ag84
ag183
ag138
ag120
ag136
ag73
ag23
ag75
ag76
ag77
ag201
ag79
ag80
ag81
ag200
ag49
ag199
ag83
ag78
ag66
ag60
ag62
ag127
ag44
ag115
ag105
ag114
ag96
ag97
ag26
ag46
ag31
ag101
ag33
ag34
ag95
ag19
ag20
ag24
ag6
ag35
ag111
ag40
ag21
ag18
ag135
ag22
ag133
ag4
ag63
ag9
ag65
ag190
ag67
ag68
ag15
ag91
ag94
ag116
ag119
ag132
ag93
ag121
ag123
ag124
ag125
ag117
ag126
ag128
ag129
ag17
ag191
ag226
ag189
ag145
ag143
ag53
ag142
ag174
ag57
ag202
ag163
ag164
ag165
ag166
ag167
ag168
ag169
ag170
ag162
ag171
ag173
ag175
ag176
ag177
ag178
ag179
ag180
ag144
ag14
ag188
ag147
ag113
ag112
ag110
ag109
ag108
ag104
ag103
ag102
ag100
ag98
ag134
ag131
ag130
ag122
ag118
ag92
ag64
ag54
ag82
ag74
ag204
ag28
ag25
ag172
ag161
ag42
ag160
ag210
ag211
ag212
ag48
ag213
ag214
ag215
ag207
ag216
ag218
ag219
ag220
ag221
ag222
ag223
ag52
ag224
ag225
ag217
ag206
ag205
ag185
ag187
ag209
ag208
ag184
ag149
ag159
ag140
ag141
ag32
ag10
ag7
ag5
ag8
ag146
ag29
ag150
ag182
ag151
ag153
ag154
ag155
ag156
ag157
ag158
ag181
ag50
ag139
ag12
atp452
sI77
(S'trans_monoenoic_Fatty_acids_total_g_TopFoods'
p453
(lp454
g13
ag16
ag11
ag71
ag39
ag106
ag45
ag3
ag37
ag148
ag56
ag27
ag99
ag41
ag38
ag43
ag47
ag186
ag90
ag70
ag49
ag30
ag83
ag84
ag55
ag85
ag86
ag69
ag87
ag88
ag89
ag61
ag51
ag72
ag81
ag77
ag80
ag201
ag190
ag191
ag192
ag193
ag194
ag195
ag196
ag197
ag198
ag199
ag200
ag137
ag79
ag203
ag183
ag138
ag120
ag136
ag73
ag23
ag75
ag76
ag60
ag78
ag59
ag65
ag58
ag62
ag127
ag44
ag115
ag105
ag114
ag96
ag97
ag26
ag46
ag31
ag101
ag33
ag34
ag95
ag19
ag20
ag24
ag6
ag35
ag111
ag40
ag21
ag18
ag135
ag22
ag133
ag4
ag63
ag9
ag188
ag66
ag67
ag68
ag15
ag91
ag94
ag116
ag119
ag132
ag93
ag121
ag123
ag124
ag125
ag117
ag126
ag128
ag129
ag17
ag189
ag226
ag187
ag14
ag144
ag143
ag53
ag142
ag174
ag57
ag202
ag163
ag164
ag165
ag166
ag167
ag168
ag169
ag170
ag162
ag171
ag173
ag175
ag176
ag177
ag178
ag179
ag145
ag147
ag172
ag25
ag113
ag112
ag110
ag109
ag108
ag107
ag104
ag103
ag102
ag100
ag98
ag134
ag131
ag130
ag122
ag118
ag92
ag64
ag54
ag82
ag74
ag204
ag28
ag180
ag161
ag185
ag184
ag209
ag210
ag211
ag212
ag48
ag213
ag214
ag215
ag207
ag216
ag218
ag219
ag220
ag221
ag222
ag223
ag52
ag224
ag225
ag217
ag206
ag205
ag36
ag208
ag182
ag42
ag139
ag160
ag159
ag140
ag141
ag32
ag10
ag7
ag5
ag8
ag146
ag29
ag149
ag150
ag151
ag152
ag153
ag154
ag155
ag156
ag157
ag158
ag181
ag50
ag12
atp455
sI78
(S'trans_polyenoic_Fatty_acids_total_g_TopFoods'
p456
(lp457
g13
ag106
ag16
ag45
ag71
ag39
ag37
ag3
ag41
ag56
ag36
ag148
ag43
ag38
ag107
ag27
ag61
ag87
ag30
ag59
ag83
ag84
ag85
ag86
ag55
ag88
ag72
ag89
ag51
ag69
ag90
ag81
ag70
ag49
ag78
ag80
ag201
ag190
ag191
ag192
ag193
ag194
ag195
ag196
ag197
ag198
ag199
ag200
ag137
ag79
ag203
ag183
ag138
ag120
ag136
ag73
ag23
ag75
ag76
ag77
ag58
ag60
ag66
ag62
ag63
ag127
ag44
ag115
ag105
ag114
ag96
ag97
ag26
ag46
ag31
ag101
ag33
ag34
ag95
ag19
ag20
ag24
ag6
ag35
ag111
ag40
ag21
ag18
ag135
ag22
ag133
ag119
ag9
ag65
ag188
ag67
ag68
ag15
ag91
ag94
ag116
ag4
ag93
ag132
ag121
ag123
ag124
ag125
ag117
ag126
ag128
ag129
ag11
ag17
ag189
ag226
ag187
ag167
ag144
ag143
ag53
ag142
ag174
ag57
ag202
ag163
ag164
ag165
ag166
ag168
ag186
ag169
ag170
ag162
ag171
ag173
ag175
ag176
ag177
ag178
ag179
ag180
ag145
ag14
ag147
ag25
ag113
ag112
ag110
ag109
ag108
ag104
ag103
ag102
ag100
ag99
ag98
ag134
ag131
ag130
ag122
ag118
ag92
ag64
ag54
ag82
ag74
ag204
ag28
ag172
ag161
ag42
ag208
ag210
ag211
ag212
ag48
ag213
ag214
ag215
ag207
ag216
ag218
ag219
ag220
ag221
ag47
ag222
ag223
ag52
ag224
ag225
ag217
ag206
ag205
ag185
ag209
ag184
ag160
ag182
ag159
ag140
ag141
ag32
ag10
ag7
ag5
ag8
ag146
ag29
ag149
ag150
ag151
ag152
ag153
ag154
ag155
ag156
ag157
ag158
ag181
ag50
ag139
ag12
atp458
sI79
(S'Fiber_total_dietary_g_TopFoods'
p459
(lp460
g46
ag44
ag97
ag33
ag17
ag127
ag31
ag152
ag16
ag101
ag179
ag135
ag34
ag142
ag22
ag173
ag171
ag96
ag11
ag43
ag115
ag114
ag133
ag169
ag147
ag5
ag167
ag131
ag165
ag95
ag78
ag100
ag148
ag204
ag105
ag162
ag150
ag134
ag174
ag53
ag143
ag102
ag110
ag92
ag170
ag42
ag26
ag108
ag25
ag28
ag80
ag141
ag159
ag202
ag164
ag107
ag8
ag149
ag140
ag54
ag166
ag194
ag49
ag183
ag113
ag109
ag64
ag117
ag161
ag172
ag90
ag99
ag223
ag38
ag185
ag192
ag45
ag144
ag139
ag163
ag75
ag89
ag30
ag206
ag224
ag74
ag103
ag137
ag186
ag225
ag104
ag79
ag211
ag156
ag41
ag189
ag132
ag98
ag160
ag83
ag36
ag118
ag187
ag29
ag208
ag155
ag184
ag193
ag188
ag136
ag213
ag81
ag219
ag120
ag138
ag207
ag215
ag87
ag220
ag70
ag218
ag51
ag50
ag216
ag88
ag130
ag198
ag145
ag222
ag47
ag10
ag7
ag157
ag48
ag85
ag212
ag217
ag72
ag106
ag226
ag197
ag182
ag199
ag196
ag129
ag201
ag158
ag23
ag154
ag195
ag191
ag190
ag82
ag210
ag203
ag32
ag77
ag209
ag76
ag122
ag200
ag153
ag214
ag181
ag52
ag111
ag178
ag18
ag21
ag151
ag146
ag40
ag180
ag176
ag177
ag35
ag175
ag37
ag168
ag57
ag14
ag39
ag19
ag13
ag20
ag24
ag6
ag112
ag3
ag128
ag69
ag58
ag60
ag59
ag55
ag27
ag56
ag61
ag63
ag71
ag221
ag205
ag86
ag84
ag73
ag62
ag9
ag126
ag4
ag125
ag124
ag123
ag121
ag93
ag119
ag116
ag65
ag94
ag91
ag15
ag68
ag67
ag66
ag12
atp461
sI80
(S'Fluoride_F_mcg_TopFoods'
p462
(lp463
g186
ag22
ag220
ag18
ag21
ag40
ag159
ag76
ag90
ag158
ag217
ag195
ag42
ag207
ag144
ag6
ag24
ag51
ag193
ag128
ag85
ag190
ag52
ag41
ag214
ag182
ag39
ag216
ag77
ag49
ag69
ag72
ag81
ag30
ag87
ag84
ag89
ag88
ag70
ag61
ag86
ag71
ag83
ag136
ag80
ag137
ag192
ag194
ag196
ag197
ag198
ag199
ag200
ag201
ag203
ag79
ag183
ag138
ag120
ag27
ag73
ag23
ag75
ag78
ag56
ag38
ag55
ag59
ag132
ag133
ag135
ag127
ag44
ag115
ag105
ag114
ag96
ag97
ag26
ag16
ag46
ag31
ag101
ag33
ag34
ag95
ag19
ag13
ag20
ag35
ag111
ag17
ag11
ag129
ag91
ag60
ag58
ag62
ag63
ag9
ag65
ag66
ag67
ag68
ag15
ag94
ag126
ag116
ag4
ag119
ag93
ag121
ag3
ag123
ag124
ag125
ag117
ag191
ag226
ag189
ag177
ag147
ag14
ag145
ag143
ag53
ag142
ag174
ag57
ag202
ag163
ag164
ag165
ag166
ag43
ag167
ag168
ag169
ag170
ag162
ag171
ag173
ag37
ag175
ag25
ag28
ag204
ag100
ag113
ag112
ag110
ag109
ag108
ag107
ag106
ag104
ag103
ag102
ag99
ag74
ag98
ag134
ag131
ag130
ag122
ag118
ag92
ag64
ag54
ag82
ag176
ag178
ag188
ag179
ag139
ag184
ag208
ag209
ag210
ag211
ag212
ag48
ag213
ag215
ag218
ag219
ag221
ag47
ag222
ag223
ag224
ag225
ag206
ag205
ag36
ag185
ag187
ag50
ag181
ag157
ag8
ag180
ag172
ag161
ag160
ag140
ag141
ag32
ag10
ag7
ag5
ag146
ag156
ag29
ag148
ag149
ag150
ag151
ag45
ag152
ag153
ag154
ag155
ag12
atp464
sI81
(S'Folate_DFE_mcg_TopFoods'
p465
(lp466
g174
ag168
ag170
ag167
ag59
ag162
ag104
ag165
ag143
ag173
ag61
ag171
ag164
ag169
ag202
ag62
ag17
ag98
ag166
ag44
ag149
ag53
ag157
ag64
ag34
ag135
ag105
ag151
ag35
ag141
ag146
ag219
ag117
ag172
ag150
ag132
ag179
ag54
ag221
ag133
ag90
ag114
ag115
ag60
ag107
ag129
ag139
ag218
ag211
ag215
ag184
ag45
ag180
ag96
ag92
ag28
ag42
ag127
ag75
ag39
ag110
ag142
ag102
ag148
ag155
ag201
ag216
ag36
ag100
ag189
ag131
ag210
ag109
ag196
ag144
ag160
ag134
ag220
ag161
ag153
ag25
ag198
ag145
ag31
ag204
ag57
ag8
ag136
ag89
ag16
ag38
ag29
ag158
ag113
ag217
ag23
ag7
ag156
ag154
ag159
ag213
ag185
ag99
ag11
ag118
ag51
ag74
ag49
ag147
ag163
ag200
ag182
ag207
ag191
ag106
ag22
ag209
ag50
ag10
ag103
ag181
ag197
ag223
ag82
ag43
ag176
ag225
ag224
ag206
ag203
ag177
ag87
ag40
ag208
ag183
ag137
ag120
ag140
ag21
ag212
ag95
ag33
ag77
ag26
ag80
ag72
ag55
ag27
ag5
ag175
ag178
ag108
ag138
ag63
ag41
ag18
ag226
ag193
ag214
ag199
ag81
ag88
ag46
ag79
ag190
ag186
ag19
ag20
ag12
ag58
ag122
ag24
ag37
ag111
ag85
ag130
ag56
ag69
ag195
ag6
ag14
ag32
ag48
ag52
ag187
ag70
ag76
ag71
ag83
ag9
ag67
ag101
ag91
ag152
ag15
ag68
ag13
ag65
ag66
ag116
ag30
ag84
ag86
ag112
ag94
ag125
ag126
ag222
ag128
ag78
ag73
ag124
ag123
ag194
ag3
ag192
ag121
ag188
ag93
ag119
ag205
ag4
ag97
ag47
atp467
sI82
(S'Folate_food_mcg_TopFoods'
p468
(lp469
g174
ag168
ag170
ag167
ag59
ag162
ag165
ag143
ag173
ag61
ag171
ag164
ag169
ag62
ag202
ag17
ag166
ag44
ag149
ag53
ag157
ag64
ag135
ag34
ag105
ag151
ag35
ag141
ag146
ag219
ag117
ag172
ag150
ag132
ag179
ag221
ag54
ag133
ag90
ag114
ag115
ag98
ag60
ag107
ag129
ag139
ag218
ag215
ag211
ag184
ag45
ag180
ag96
ag92
ag28
ag42
ag127
ag75
ag152
ag39
ag110
ag142
ag148
ag155
ag102
ag201
ag216
ag36
ag100
ag189
ag109
ag131
ag210
ag196
ag144
ag134
ag160
ag220
ag161
ag198
ag153
ag25
ag145
ag47
ag31
ag204
ag8
ag57
ag136
ag16
ag89
ag38
ag113
ag29
ag158
ag23
ag217
ag154
ag156
ag7
ag213
ag159
ag185
ag118
ag11
ag99
ag74
ag51
ag163
ag49
ag182
ag200
ag147
ag207
ag191
ag209
ag104
ag50
ag22
ag106
ag197
ag103
ag10
ag181
ag176
ag223
ag43
ag82
ag206
ag225
ag203
ag224
ag177
ag208
ag137
ag183
ag87
ag40
ag21
ag212
ag140
ag120
ag77
ag33
ag26
ag95
ag178
ag175
ag80
ag55
ag5
ag27
ag72
ag108
ag138
ag63
ag41
ag18
ag226
ag193
ag214
ag81
ag199
ag88
ag46
ag79
ag24
ag190
ag186
ag20
ag12
ag19
ag122
ag58
ag130
ag111
ag69
ag56
ag195
ag37
ag85
ag70
ag6
ag187
ag222
ag48
ag32
ag14
ag52
ag76
ag71
ag83
ag9
ag128
ag101
ag112
ag86
ag84
ag65
ag66
ag67
ag68
ag13
ag15
ag91
ag94
ag116
ag4
ag126
ag119
ag93
ag205
ag97
ag121
ag3
ag188
ag123
ag192
ag124
ag194
ag125
ag30
ag73
ag78
atp470
sI83
(S'Folate_total_mcg_TopFoods'
p471
(lp472
g174
ag168
ag170
ag167
ag59
ag162
ag165
ag143
ag173
ag61
ag171
ag164
ag169
ag202
ag62
ag104
ag17
ag166
ag44
ag149
ag53
ag157
ag64
ag98
ag34
ag135
ag105
ag151
ag35
ag141
ag146
ag219
ag117
ag172
ag150
ag132
ag179
ag221
ag54
ag133
ag90
ag115
ag114
ag60
ag107
ag129
ag139
ag218
ag215
ag211
ag184
ag180
ag45
ag96
ag92
ag28
ag42
ag127
ag152
ag75
ag39
ag142
ag110
ag148
ag102
ag155
ag216
ag201
ag36
ag100
ag131
ag210
ag109
ag189
ag196
ag144
ag134
ag160
ag220
ag161
ag25
ag153
ag198
ag145
ag47
ag31
ag204
ag57
ag8
ag136
ag16
ag89
ag38
ag113
ag29
ag158
ag217
ag23
ag156
ag7
ag154
ag213
ag159
ag185
ag11
ag74
ag51
ag99
ag118
ag49
ag200
ag163
ag147
ag182
ag207
ag191
ag22
ag106
ag209
ag50
ag103
ag181
ag197
ag10
ag43
ag176
ag82
ag223
ag206
ag225
ag224
ag203
ag177
ag87
ag40
ag137
ag183
ag208
ag21
ag212
ag140
ag120
ag77
ag33
ag26
ag95
ag178
ag175
ag5
ag55
ag80
ag27
ag72
ag108
ag138
ag63
ag41
ag18
ag226
ag193
ag214
ag81
ag199
ag88
ag46
ag79
ag24
ag190
ag186
ag20
ag12
ag19
ag122
ag58
ag130
ag111
ag69
ag56
ag195
ag37
ag85
ag70
ag6
ag187
ag222
ag48
ag32
ag14
ag52
ag76
ag71
ag83
ag9
ag128
ag101
ag112
ag86
ag84
ag65
ag66
ag67
ag68
ag13
ag15
ag91
ag94
ag116
ag4
ag126
ag119
ag93
ag205
ag97
ag121
ag3
ag188
ag123
ag192
ag124
ag194
ag125
ag30
ag73
ag78
atp473
sI84
(S'Folic_acid_mcg_TopFoods'
p474
(lp475
g104
ag98
ag90
ag80
ag81
ag49
ag30
ag83
ag84
ag85
ag86
ag87
ag88
ag89
ag51
ag38
ag78
ag70
ag72
ag71
ag61
ag69
ag56
ag27
ag55
ag59
ag60
ag58
ag79
ag76
ag77
ag198
ag187
ag188
ag189
ag190
ag191
ag192
ag193
ag194
ag195
ag196
ag197
ag199
ag63
ag200
ag201
ag137
ag203
ag183
ag138
ag120
ag136
ag73
ag23
ag75
ag62
ag65
ag9
ag34
ag115
ag105
ag114
ag96
ag97
ag26
ag16
ag46
ag31
ag101
ag33
ag95
ag127
ag19
ag13
ag20
ag24
ag6
ag35
ag111
ag39
ag40
ag21
ag18
ag44
ag135
ag185
ag3
ag66
ag67
ag68
ag15
ag91
ag94
ag116
ag4
ag119
ag93
ag121
ag123
ag22
ag124
ag125
ag117
ag126
ag128
ag41
ag129
ag11
ag17
ag132
ag133
ag186
ag226
ag36
ag167
ag143
ag53
ag142
ag174
ag57
ag202
ag163
ag164
ag165
ag166
ag43
ag168
ag145
ag169
ag170
ag162
ag171
ag173
ag37
ag175
ag176
ag177
ag178
ag179
ag144
ag14
ag205
ag134
ag113
ag112
ag110
ag109
ag108
ag107
ag106
ag103
ag102
ag100
ag99
ag131
ag147
ag130
ag122
ag118
ag92
ag64
ag54
ag82
ag74
ag204
ag28
ag25
ag180
ag172
ag161
ag216
ag184
ag208
ag209
ag210
ag211
ag212
ag48
ag213
ag214
ag215
ag207
ag218
ag42
ag219
ag220
ag221
ag47
ag222
ag223
ag52
ag224
ag225
ag217
ag206
ag182
ag139
ag50
ag181
ag160
ag159
ag140
ag141
ag32
ag10
ag7
ag5
ag8
ag146
ag29
ag148
ag149
ag150
ag151
ag45
ag152
ag153
ag154
ag155
ag156
ag157
ag158
ag12
atp476
sI85
(S'Fructose_g_TopFoods'
p477
(lp478
g187
ag186
ag223
ag30
ag80
ag49
ag194
ag23
ag76
ag125
ag127
ag193
ag163
ag222
ag85
ag88
ag51
ag201
ag136
ag31
ag196
ag52
ag190
ag200
ag217
ag197
ag89
ag185
ag191
ag213
ag195
ag216
ag220
ag182
ag44
ag46
ag16
ag47
ag72
ag214
ag158
ag218
ag83
ag184
ag207
ag11
ag210
ag135
ag211
ag139
ag107
ag133
ag110
ag42
ag41
ag22
ag209
ag38
ag45
ag157
ag90
ag134
ag148
ag131
ag172
ag35
ag111
ag141
ag140
ag160
ag29
ag102
ag161
ag159
ag129
ag105
ag79
ag6
ag18
ag114
ag96
ag75
ag87
ag86
ag97
ag21
ag26
ag84
ag101
ag33
ag34
ag95
ag19
ag77
ag78
ag13
ag81
ag40
ag115
ag24
ag39
ag20
ag117
ag132
ag15
ag68
ag67
ag66
ag65
ag73
ag63
ag62
ag58
ag60
ag59
ag55
ag27
ag56
ag69
ag61
ag17
ag71
ag91
ag94
ag116
ag4
ag119
ag93
ag121
ag70
ag3
ag123
ag124
ag126
ag128
ag9
ag226
ag120
ag202
ag14
ag145
ag144
ag143
ag53
ag142
ag174
ag57
ag164
ag25
ag165
ag166
ag43
ag167
ag168
ag169
ag170
ag162
ag147
ag28
ag173
ag99
ag113
ag112
ag109
ag108
ag106
ag104
ag103
ag100
ag98
ag204
ag130
ag122
ag118
ag92
ag64
ag54
ag82
ag74
ag171
ag37
ag138
ag205
ag212
ag48
ag215
ag219
ag221
ag224
ag225
ag206
ag36
ag50
ag188
ag189
ag192
ag198
ag199
ag137
ag203
ag183
ag208
ag181
ag175
ag5
ag176
ag177
ag178
ag179
ag180
ag32
ag10
ag7
ag8
ag156
ag146
ag149
ag150
ag151
ag152
ag153
ag154
ag155
ag12
atp479
sI86
(S'Galactose_g_TopFoods'
p480
(lp481
g85
ag129
ag105
ag127
ag136
ag13
ag22
ag16
ag44
ag190
ag80
ag157
ag90
ag111
ag148
ag35
ag195
ag89
ag83
ag81
ag30
ag79
ag49
ag87
ag84
ag86
ag77
ag88
ag51
ag70
ag72
ag71
ag61
ag69
ag56
ag78
ag38
ag76
ag75
ag187
ag188
ag189
ag191
ag192
ag193
ag194
ag196
ag197
ag198
ag199
ag200
ag201
ag137
ag203
ag183
ag138
ag120
ag55
ag73
ag23
ag27
ag63
ag59
ag101
ag132
ag133
ag135
ag115
ag114
ag96
ag97
ag26
ag46
ag31
ag33
ag11
ag34
ag95
ag19
ag20
ag24
ag6
ag39
ag40
ag21
ag18
ag17
ag41
ag60
ag94
ag58
ag62
ag185
ag9
ag65
ag66
ag67
ag68
ag15
ag91
ag116
ag128
ag4
ag119
ag93
ag121
ag3
ag123
ag124
ag125
ag117
ag126
ag186
ag226
ag36
ag166
ag145
ag144
ag143
ag53
ag142
ag174
ag57
ag202
ag163
ag164
ag165
ag43
ag147
ag167
ag168
ag169
ag170
ag162
ag171
ag173
ag37
ag175
ag176
ag177
ag14
ag25
ag205
ag99
ag113
ag112
ag110
ag109
ag108
ag107
ag106
ag104
ag103
ag102
ag100
ag98
ag28
ag134
ag131
ag130
ag122
ag118
ag92
ag64
ag54
ag82
ag74
ag204
ag178
ag179
ag180
ag216
ag184
ag208
ag209
ag210
ag211
ag212
ag48
ag213
ag214
ag215
ag207
ag218
ag172
ag219
ag220
ag221
ag47
ag222
ag223
ag52
ag224
ag225
ag217
ag206
ag182
ag139
ag50
ag181
ag161
ag42
ag160
ag159
ag140
ag141
ag32
ag10
ag7
ag5
ag8
ag146
ag29
ag149
ag150
ag151
ag45
ag152
ag153
ag154
ag155
ag156
ag158
ag12
atp482
sI87
(S'Glucose_dextrose_g_TopFoods'
p483
(lp484
g223
ag187
ag186
ag30
ag80
ag49
ag194
ag23
ag125
ag76
ag85
ag190
ag51
ag88
ag136
ag144
ag196
ag83
ag105
ag135
ag222
ag200
ag127
ag193
ag72
ag89
ag31
ag197
ag201
ag217
ag182
ag195
ag44
ag185
ag191
ag216
ag52
ag213
ag220
ag209
ag38
ag36
ag16
ag47
ag158
ag46
ag110
ag214
ag207
ag218
ag41
ag43
ag179
ag211
ag11
ag39
ag133
ag90
ag210
ag111
ag184
ag42
ag107
ag22
ag35
ag148
ag131
ag45
ag139
ag157
ag172
ag141
ag160
ag140
ag134
ag29
ag161
ag159
ag129
ag70
ag87
ag81
ag78
ag86
ag77
ag79
ag71
ag84
ag65
ag61
ag69
ag126
ag128
ag17
ag132
ag115
ag114
ag96
ag97
ag26
ag101
ag33
ag34
ag95
ag19
ag13
ag20
ag24
ag6
ag40
ag21
ag18
ag117
ag124
ag123
ag66
ag56
ag27
ag55
ag59
ag60
ag58
ag62
ag63
ag9
ag67
ag3
ag68
ag15
ag91
ag94
ag116
ag4
ag119
ag93
ag121
ag75
ag226
ag73
ag202
ag147
ag14
ag145
ag143
ag53
ag142
ag174
ag57
ag163
ag28
ag164
ag165
ag166
ag167
ag168
ag169
ag170
ag162
ag25
ag204
ag120
ag100
ag113
ag112
ag109
ag108
ag106
ag104
ag103
ag102
ag99
ag74
ag98
ag130
ag122
ag118
ag92
ag64
ag54
ag82
ag171
ag173
ag37
ag205
ag212
ag48
ag215
ag219
ag221
ag224
ag225
ag206
ag188
ag175
ag189
ag192
ag198
ag199
ag137
ag203
ag183
ag138
ag208
ag50
ag181
ag156
ag176
ag177
ag178
ag180
ag32
ag10
ag7
ag5
ag8
ag146
ag149
ag150
ag151
ag152
ag153
ag154
ag155
ag12
atp485
sI88
(S'Glutamic_acid_g_TopFoods'
p486
(lp487
g169
ag164
ag202
ag148
ag45
ag180
ag149
ag166
ag105
ag161
ag165
ag144
ag110
ag104
ag174
ag74
ag98
ag29
ag170
ag102
ag177
ag42
ag133
ag167
ag12
ag179
ag142
ag96
ag150
ag204
ag43
ag53
ag92
ag141
ag151
ag135
ag162
ag171
ag152
ag37
ag27
ag69
ag145
ag147
ag63
ag33
ag56
ag178
ag97
ag55
ag160
ag173
ag172
ag176
ag108
ag62
ag61
ag175
ag71
ag36
ag134
ag99
ag54
ag60
ag131
ag140
ag127
ag59
ag25
ag35
ag28
ag163
ag64
ag159
ag109
ag112
ag38
ag39
ag31
ag5
ag111
ag118
ag103
ag78
ag22
ag82
ag113
ag11
ag40
ag130
ag21
ag44
ag14
ag7
ag48
ag8
ag24
ag139
ag41
ag19
ag20
ag18
ag146
ag16
ag57
ag194
ag218
ag10
ag219
ag46
ag207
ag153
ag49
ag117
ag157
ag209
ag75
ag211
ag80
ag216
ag221
ag90
ag129
ag184
ag223
ag154
ag182
ag214
ag23
ag220
ag213
ag136
ag181
ag210
ag156
ag6
ag32
ag212
ag77
ag158
ag72
ag200
ag51
ag87
ag83
ag217
ag201
ag198
ag88
ag85
ag76
ag191
ag81
ag70
ag192
ag52
ag197
ag195
ag84
ag206
ag190
ag196
ag193
ag222
ag95
ag128
ag13
ag126
ag125
ag17
ag132
ag114
ag34
ag122
ag115
ag107
ag123
ag101
ag26
ag106
ag100
ag124
ag86
ag3
ag120
ag183
ag203
ag137
ag199
ag189
ag188
ag187
ag186
ag185
ag205
ag225
ag224
ag47
ag215
ag208
ag50
ag155
ag138
ag73
ag121
ag79
ag93
ag119
ag4
ag116
ag94
ag91
ag15
ag68
ag67
ag66
ag65
ag9
ag58
ag143
ag168
ag89
ag30
ag226
atp488
sI89
(S'Glycine_g_TopFoods'
p489
(lp490
g164
ag45
ag135
ag180
ag202
ag105
ag166
ag169
ag37
ag149
ag148
ag144
ag177
ag33
ag96
ag179
ag150
ag161
ag142
ag97
ag69
ag63
ag25
ag61
ag53
ag43
ag151
ag42
ag174
ag27
ag62
ag28
ag178
ag170
ag55
ag167
ag133
ag152
ag29
ag171
ag176
ag56
ag60
ag162
ag175
ag59
ag92
ag71
ag172
ag165
ag127
ag173
ag145
ag141
ag64
ag160
ag110
ag31
ag102
ag44
ag204
ag35
ag11
ag140
ag159
ag147
ag163
ag22
ag109
ag39
ag134
ag104
ag131
ag111
ag74
ag98
ag112
ag108
ag118
ag103
ag99
ag5
ag14
ag12
ag38
ag78
ag54
ag113
ag16
ag36
ag130
ag146
ag41
ag48
ag46
ag139
ag7
ag8
ag117
ag211
ag40
ag157
ag221
ag75
ag21
ag194
ag57
ag129
ag82
ag10
ag80
ag90
ag49
ag198
ag209
ag223
ag218
ag23
ag18
ag154
ag24
ag220
ag19
ag20
ag136
ag210
ag156
ag87
ag83
ag207
ag184
ag212
ag213
ag72
ag51
ag201
ag32
ag88
ag219
ag216
ag181
ag158
ag217
ag192
ag70
ag182
ag81
ag153
ag191
ag214
ag85
ag195
ag197
ag6
ag196
ag206
ag84
ag76
ag200
ag193
ag77
ag52
ag222
ag190
ag205
ag26
ag143
ag168
ag185
ag115
ag132
ag114
ag17
ag122
ag120
ag225
ag224
ag101
ag100
ag34
ag95
ag187
ag13
ag47
ag106
ag107
ag215
ag208
ag186
ag119
ag188
ag199
ag65
ag9
ag58
ag155
ag50
ag89
ag86
ag128
ag30
ag137
ag79
ag203
ag183
ag138
ag66
ag67
ag68
ag15
ag91
ag94
ag116
ag4
ag73
ag93
ag121
ag3
ag123
ag124
ag125
ag189
ag126
ag226
atp491
sI90
(S'Histidine_g_TopFoods'
p492
(lp493
g164
ag169
ag202
ag105
ag177
ag27
ag12
ag142
ag45
ag180
ag165
ag168
ag174
ag170
ag135
ag53
ag167
ag69
ag161
ag96
ag63
ag171
ag166
ag37
ag149
ag55
ag178
ag43
ag56
ag162
ag176
ag144
ag33
ag148
ag152
ag71
ag173
ag150
ag175
ag42
ag59
ag179
ag133
ag29
ag151
ag61
ag141
ag145
ag62
ag35
ag60
ag64
ag92
ag172
ag110
ag102
ag160
ag97
ag25
ag39
ag28
ag111
ag112
ag204
ag147
ag109
ag104
ag159
ag74
ag36
ag98
ag127
ag99
ag163
ag108
ag54
ag14
ag113
ag140
ag118
ag131
ag103
ag31
ag211
ag38
ag22
ag134
ag5
ag78
ag11
ag130
ag44
ag40
ag146
ag16
ag21
ag41
ag46
ag48
ag139
ag24
ag19
ag20
ag57
ag18
ag7
ag82
ag8
ag51
ag194
ag117
ag157
ag218
ag209
ag10
ag221
ag129
ag90
ag154
ag207
ag80
ag156
ag23
ag220
ag49
ag184
ag212
ag223
ag72
ag136
ag213
ag6
ag75
ag210
ag76
ag216
ag219
ag201
ag198
ag83
ag70
ag32
ag206
ag181
ag85
ag153
ag182
ag158
ag195
ag217
ag88
ag81
ag197
ag191
ag214
ag192
ag190
ag87
ag84
ag77
ag52
ag200
ag222
ag196
ag193
ag106
ag132
ag107
ag208
ag47
ag100
ag128
ag17
ag215
ag115
ag143
ag114
ag122
ag50
ag26
ag13
ag95
ag34
ag101
ag126
ag58
ag125
ag203
ag30
ag79
ag225
ag73
ag120
ag138
ag183
ag137
ag124
ag199
ag189
ag188
ag187
ag186
ag185
ag205
ag86
ag89
ag155
ag224
ag123
ag3
ag121
ag93
ag119
ag4
ag116
ag94
ag91
ag15
ag68
ag67
ag66
ag65
ag9
ag226
atp494
sI91
(S'Hydroxyproline_g_TopFoods'
p495
(lp496
g179
ag71
ag59
ag51
ag80
ag81
ag49
ag30
ag83
ag84
ag85
ag86
ag87
ag88
ag89
ag90
ag63
ag70
ag72
ag61
ag69
ag56
ag27
ag55
ag60
ag58
ag62
ag79
ag38
ag77
ag198
ag187
ag188
ag189
ag190
ag191
ag192
ag193
ag194
ag195
ag196
ag197
ag199
ag76
ag200
ag201
ag137
ag203
ag183
ag138
ag120
ag136
ag73
ag23
ag75
ag78
ag9
ag185
ag34
ag115
ag105
ag114
ag96
ag97
ag26
ag16
ag46
ag31
ag101
ag33
ag95
ag127
ag19
ag13
ag20
ag24
ag6
ag35
ag111
ag39
ag40
ag21
ag18
ag44
ag135
ag65
ag3
ag66
ag67
ag68
ag15
ag91
ag94
ag116
ag4
ag119
ag93
ag121
ag123
ag22
ag124
ag125
ag117
ag126
ag128
ag41
ag129
ag11
ag17
ag132
ag133
ag186
ag226
ag36
ag166
ag145
ag144
ag143
ag53
ag142
ag174
ag57
ag202
ag163
ag164
ag165
ag43
ag147
ag167
ag168
ag169
ag170
ag162
ag171
ag173
ag37
ag175
ag176
ag177
ag14
ag25
ag180
ag99
ag113
ag112
ag110
ag109
ag108
ag107
ag106
ag104
ag103
ag102
ag100
ag98
ag28
ag134
ag131
ag130
ag122
ag118
ag92
ag64
ag54
ag82
ag74
ag204
ag178
ag172
ag205
ag216
ag184
ag208
ag209
ag210
ag211
ag212
ag48
ag213
ag214
ag215
ag207
ag218
ag139
ag219
ag220
ag221
ag47
ag222
ag223
ag52
ag224
ag225
ag217
ag206
ag182
ag50
ag161
ag29
ag42
ag160
ag159
ag140
ag141
ag32
ag10
ag7
ag5
ag8
ag146
ag148
ag181
ag149
ag150
ag151
ag45
ag152
ag153
ag154
ag155
ag156
ag157
ag158
ag12
atp497
sI92
(S'Iron_Fe_mg_TopFoods'
p498
(lp499
g17
ag26
ag11
ag34
ag95
ag44
ag96
ag135
ag127
ag97
ag31
ag33
ag164
ag150
ag101
ag114
ag142
ag117
ag16
ag132
ag168
ag133
ag22
ag105
ag59
ag45
ag174
ag46
ag170
ag171
ag152
ag53
ag180
ag78
ag167
ag29
ag202
ag61
ag60
ag62
ag179
ag160
ag100
ag149
ag165
ag151
ag143
ag43
ag92
ag109
ag141
ag177
ag166
ag64
ag110
ag98
ag169
ag162
ag104
ag194
ag28
ag36
ag42
ag148
ag140
ag107
ag102
ag147
ag173
ag99
ag5
ag178
ag50
ag129
ag38
ag161
ag115
ag54
ag172
ag224
ag35
ag112
ag157
ag108
ag145
ag131
ag134
ag159
ag163
ag58
ag204
ag8
ag146
ag113
ag221
ag7
ag25
ag144
ag80
ag103
ag199
ag118
ag186
ag215
ag106
ag39
ag48
ag137
ag208
ag10
ag41
ag211
ag176
ag205
ag139
ag86
ag57
ag154
ag9
ag74
ag55
ag220
ag192
ag49
ag14
ag187
ag70
ag223
ag183
ag63
ag69
ag210
ag12
ag175
ag71
ag219
ag181
ag206
ag56
ag47
ag218
ag125
ag185
ag184
ag89
ag138
ag120
ag212
ag225
ag37
ag121
ag90
ag156
ag209
ag153
ag216
ag217
ag188
ag122
ag72
ag30
ag82
ag27
ag81
ag76
ag84
ag85
ag155
ag130
ag158
ag128
ag79
ag203
ag136
ag189
ag207
ag191
ag32
ag214
ag88
ag51
ag75
ag196
ag195
ag52
ag83
ag23
ag213
ag226
ag182
ag73
ag193
ag13
ag200
ag190
ag201
ag197
ag126
ag222
ag198
ag40
ag77
ag21
ag111
ag87
ag124
ag3
ag18
ag20
ag24
ag19
ag123
ag6
ag93
ag91
ag15
ag119
ag116
ag65
ag66
ag94
ag67
ag68
ag4
atp500
sI93
(S'Isoleucine_g_TopFoods'
p501
(lp502
g164
ag202
ag169
ag135
ag142
ag180
ag177
ag45
ag96
ag105
ag69
ag37
ag149
ag168
ag63
ag27
ag53
ag171
ag55
ag167
ag174
ag43
ag161
ag170
ag178
ag61
ag56
ag42
ag12
ag166
ag62
ag179
ag162
ag176
ag35
ag145
ag60
ag173
ag33
ag133
ag175
ag59
ag152
ag71
ag29
ag165
ag150
ag148
ag151
ag97
ag92
ag39
ag111
ag172
ag144
ag127
ag110
ag141
ag160
ag104
ag163
ag64
ag25
ag74
ag98
ag28
ag36
ag11
ag17
ag54
ag147
ag204
ag102
ag44
ag99
ag31
ag108
ag22
ag109
ag112
ag159
ag14
ag118
ag140
ag40
ag38
ag103
ag21
ag5
ag78
ag134
ag113
ag130
ag16
ag48
ag131
ag146
ag139
ag18
ag211
ag24
ag19
ag20
ag57
ag157
ag82
ag46
ag41
ag7
ag117
ag8
ag221
ag129
ag194
ag75
ag10
ag80
ag90
ag210
ag218
ag207
ag209
ag184
ag23
ag220
ag154
ag156
ag6
ag136
ag212
ag49
ag219
ag213
ag223
ag87
ag72
ag83
ag181
ag216
ag201
ag32
ag51
ag192
ag198
ag88
ag153
ag81
ag70
ag214
ag85
ag158
ag191
ag52
ag197
ag195
ag84
ag217
ag206
ag182
ag190
ag200
ag76
ag193
ag196
ag77
ag222
ag115
ag143
ag101
ag122
ag114
ag199
ag189
ag26
ag188
ag187
ag186
ag50
ag100
ag132
ag95
ag185
ag13
ag205
ag225
ag224
ag106
ag107
ag47
ag215
ag208
ag34
ag203
ag137
ag94
ag86
ag30
ag155
ag79
ag58
ag73
ag9
ag65
ag66
ag67
ag68
ag15
ag91
ag116
ag89
ag4
ag119
ag93
ag121
ag3
ag123
ag124
ag125
ag120
ag126
ag128
ag138
ag183
ag226
atp503
sI94
(S'Lactose_g_TopFoods'
p504
(lp505
g24
ag20
ag13
ag218
ag30
ag111
ag35
ag80
ag81
ag49
ag88
ag79
ag78
ag83
ag84
ag85
ag86
ag87
ag38
ag51
ag89
ag76
ag90
ag70
ag72
ag71
ag61
ag69
ag56
ag27
ag55
ag77
ag73
ag75
ag197
ag187
ag188
ag189
ag190
ag191
ag192
ag193
ag194
ag195
ag196
ag198
ag23
ag199
ag200
ag201
ag137
ag203
ag183
ag138
ag120
ag136
ag60
ag59
ag63
ag58
ag132
ag22
ag135
ag127
ag44
ag115
ag105
ag114
ag96
ag97
ag26
ag16
ag46
ag31
ag101
ag33
ag34
ag95
ag19
ag6
ag39
ag40
ag21
ag18
ag133
ag17
ag62
ag11
ag185
ag9
ag65
ag66
ag67
ag68
ag15
ag91
ag94
ag116
ag4
ag119
ag93
ag121
ag3
ag123
ag124
ag125
ag117
ag126
ag128
ag41
ag129
ag186
ag226
ag36
ag166
ag145
ag144
ag143
ag53
ag142
ag174
ag57
ag202
ag163
ag164
ag165
ag43
ag147
ag167
ag168
ag169
ag170
ag162
ag171
ag173
ag37
ag175
ag176
ag177
ag14
ag25
ag179
ag99
ag113
ag112
ag110
ag109
ag108
ag107
ag106
ag104
ag103
ag102
ag100
ag98
ag28
ag134
ag131
ag130
ag122
ag118
ag92
ag64
ag54
ag82
ag74
ag204
ag178
ag180
ag205
ag207
ag182
ag184
ag208
ag209
ag210
ag211
ag212
ag48
ag213
ag214
ag215
ag216
ag50
ag219
ag220
ag221
ag47
ag222
ag223
ag52
ag224
ag225
ag217
ag206
ag139
ag181
ag172
ag146
ag161
ag42
ag160
ag159
ag140
ag141
ag32
ag10
ag7
ag5
ag8
ag29
ag158
ag148
ag149
ag150
ag151
ag45
ag152
ag153
ag154
ag155
ag156
ag157
ag12
atp506
sI95
(S'Leucine_g_TopFoods'
p507
(lp508
g164
ag202
ag135
ag169
ag142
ag45
ag177
ag180
ag105
ag171
ag37
ag174
ag27
ag167
ag53
ag170
ag96
ag12
ag161
ag43
ag166
ag149
ag178
ag69
ag56
ag63
ag42
ag165
ag168
ag36
ag176
ag144
ag59
ag173
ag61
ag99
ag148
ag29
ag55
ag162
ag175
ag62
ag54
ag35
ag145
ag152
ag71
ag150
ag60
ag133
ag92
ag179
ag33
ag172
ag112
ag151
ag39
ag38
ag110
ag141
ag111
ag22
ag97
ag160
ag127
ag102
ag104
ag74
ag98
ag113
ag147
ag64
ag25
ag204
ag163
ag11
ag28
ag44
ag109
ag108
ag31
ag118
ag134
ag140
ag103
ag159
ag40
ag131
ag21
ag14
ag5
ag130
ag78
ag17
ag16
ag18
ag139
ag24
ag48
ag19
ag20
ag146
ag41
ag7
ag82
ag46
ag117
ag8
ag57
ag157
ag211
ag194
ag221
ag129
ag75
ag10
ag90
ag218
ag80
ag209
ag220
ag184
ag154
ag23
ag207
ag156
ag49
ag6
ag223
ag210
ag87
ag72
ag212
ag51
ag219
ag136
ag213
ag83
ag32
ag201
ag192
ag181
ag88
ag216
ag70
ag153
ag217
ag81
ag158
ag85
ag214
ag197
ag195
ag84
ag182
ag206
ag191
ag198
ag76
ag193
ag52
ag196
ag200
ag190
ag222
ag77
ag115
ag187
ag107
ag132
ag185
ag186
ag155
ag106
ag114
ag138
ag205
ag26
ag101
ag143
ag34
ag95
ag225
ag188
ag13
ag224
ag47
ag215
ag50
ag4
ag189
ag199
ag9
ag58
ag100
ag208
ag122
ag89
ag86
ag128
ag30
ag79
ag137
ag203
ag183
ag73
ag65
ag66
ag67
ag68
ag15
ag91
ag94
ag116
ag120
ag119
ag93
ag121
ag3
ag123
ag124
ag125
ag126
ag226
atp509
sI96
(S'Lutein_+_zeaxanthin_mcg_TopFoods'
p510
(lp511
g127
ag157
ag211
ag129
ag208
ag42
ag139
ag135
ag17
ag44
ag210
ag181
ag218
ag35
ag215
ag154
ag179
ag220
ag105
ag194
ag39
ag33
ag22
ag26
ag31
ag184
ag90
ag207
ag46
ag204
ag28
ag102
ag100
ag131
ag134
ag183
ag226
ag110
ag64
ag108
ag147
ag109
ag23
ag30
ag197
ag199
ag185
ag198
ag136
ag89
ag41
ag56
ag141
ag195
ag83
ag196
ag72
ag85
ag88
ag49
ag45
ag190
ag76
ag87
ag188
ag106
ag193
ag213
ag80
ag222
ag216
ag200
ag217
ag82
ag192
ag201
ag214
ag223
ag51
ag29
ag159
ag48
ag120
ag158
ag81
ag161
ag160
ag172
ag52
ag77
ag113
ag182
ag13
ag148
ag34
ag16
ag70
ag101
ag24
ag95
ag19
ag20
ag61
ag6
ag111
ag40
ag86
ag21
ag18
ag84
ag71
ag55
ag69
ag91
ag9
ag65
ag123
ag66
ag67
ag68
ag94
ag97
ag116
ag4
ag119
ag93
ag121
ag3
ag124
ag125
ag63
ag117
ag126
ag128
ag62
ag11
ag132
ag58
ag133
ag115
ag114
ag60
ag96
ag59
ag27
ag15
ag38
ag79
ag43
ag174
ag57
ag202
ag163
ag164
ag165
ag166
ag167
ag176
ag168
ag169
ag170
ag162
ag171
ag173
ag37
ag142
ag53
ag143
ag144
ag112
ag107
ag104
ag103
ag99
ag98
ag130
ag122
ag118
ag92
ag54
ag74
ag25
ag14
ag145
ag175
ag177
ag78
ag186
ag221
ag47
ag224
ag225
ag206
ag205
ag36
ag187
ag178
ag189
ag191
ag137
ag203
ag138
ag73
ag75
ag219
ag212
ag209
ag50
ag180
ag140
ag32
ag10
ag7
ag5
ag8
ag146
ag149
ag150
ag151
ag152
ag153
ag155
ag156
ag12
atp512
sI97
(S'Lycopene_mcg_TopFoods'
p513
(lp514
g75
ag52
ag196
ag77
ag59
ag31
ag33
ag22
ag46
ag201
ag207
ag51
ag81
ag49
ag30
ag83
ag84
ag85
ag86
ag87
ag88
ag89
ag192
ag79
ag90
ag70
ag72
ag71
ag61
ag69
ag56
ag27
ag55
ag80
ag187
ag78
ag137
ag194
ag195
ag191
ag197
ag198
ag190
ag199
ag189
ag200
ag203
ag193
ag183
ag138
ag120
ag136
ag73
ag60
ag23
ag188
ag76
ag38
ag63
ag58
ag34
ag135
ag127
ag44
ag115
ag105
ag114
ag96
ag97
ag26
ag16
ag101
ag95
ag62
ag19
ag13
ag20
ag24
ag6
ag35
ag111
ag39
ag40
ag21
ag18
ag133
ag132
ag17
ag11
ag185
ag9
ag65
ag66
ag67
ag68
ag15
ag91
ag94
ag116
ag4
ag119
ag93
ag121
ag3
ag123
ag124
ag125
ag117
ag126
ag128
ag41
ag129
ag186
ag226
ag36
ag166
ag145
ag144
ag143
ag53
ag142
ag174
ag57
ag202
ag163
ag164
ag165
ag43
ag147
ag167
ag168
ag169
ag170
ag162
ag171
ag173
ag37
ag175
ag176
ag177
ag14
ag25
ag205
ag99
ag113
ag112
ag110
ag109
ag108
ag107
ag106
ag104
ag103
ag102
ag100
ag98
ag28
ag134
ag131
ag130
ag122
ag118
ag92
ag64
ag54
ag82
ag74
ag204
ag178
ag179
ag180
ag215
ag139
ag182
ag184
ag208
ag209
ag210
ag211
ag212
ag48
ag213
ag214
ag216
ag172
ag218
ag219
ag220
ag221
ag47
ag222
ag223
ag224
ag225
ag217
ag206
ag50
ag181
ag158
ag157
ag161
ag42
ag160
ag159
ag140
ag141
ag32
ag10
ag7
ag5
ag8
ag146
ag29
ag148
ag149
ag150
ag151
ag45
ag152
ag153
ag154
ag155
ag156
ag12
atp515
sI98
(S'Lysine_g_TopFoods'
p516
(lp517
g164
ag177
ag202
ag27
ag142
ag37
ag135
ag12
ag169
ag178
ag69
ag105
ag63
ag56
ag43
ag53
ag176
ag96
ag167
ag55
ag174
ag175
ag171
ag170
ag165
ag71
ag162
ag61
ag59
ag62
ag60
ag173
ag168
ag45
ag35
ag42
ag33
ag152
ag133
ag149
ag29
ag166
ag39
ag180
ag145
ag179
ag111
ag64
ag97
ag161
ag92
ag127
ag144
ag25
ag28
ag14
ag150
ag148
ag160
ag109
ag151
ag40
ag44
ag163
ag21
ag147
ag172
ag141
ag110
ag108
ag11
ag16
ag31
ag102
ag204
ag139
ag18
ag5
ag146
ag159
ag118
ag131
ag24
ag103
ag48
ag104
ag19
ag112
ag41
ag20
ag74
ag22
ag46
ag98
ag78
ag99
ag57
ag134
ag54
ag17
ag130
ag113
ag137
ag211
ag38
ag157
ag7
ag8
ag36
ag117
ag224
ag218
ag90
ag221
ag194
ag129
ag209
ag207
ag10
ag72
ag154
ag220
ag80
ag210
ag184
ag87
ag82
ag75
ag23
ag6
ag201
ag49
ag52
ag136
ag156
ag219
ag212
ag225
ag181
ag223
ag51
ag213
ag198
ag216
ag203
ag206
ag182
ag83
ag153
ag158
ag197
ag192
ag85
ag32
ag81
ag195
ag70
ag214
ag76
ag191
ag217
ag84
ag196
ag140
ag200
ag193
ag190
ag77
ag138
ag222
ag88
ag50
ag95
ag13
ag107
ag208
ag132
ag106
ag128
ag100
ag101
ag115
ag122
ag114
ag143
ag155
ag26
ag34
ag215
ag126
ag183
ag86
ag30
ag79
ag47
ag73
ag120
ag199
ag58
ag189
ag188
ag187
ag186
ag185
ag205
ag89
ag9
ag125
ag4
ag124
ag123
ag3
ag121
ag93
ag119
ag116
ag65
ag94
ag91
ag15
ag68
ag67
ag66
ag226
atp518
sI99
(S'Magnesium_Mg_mg_TopFoods'
p519
(lp520
g45
ag180
ag202
ag135
ag179
ag97
ag168
ag105
ag26
ag151
ag150
ag133
ag174
ag152
ag149
ag29
ag164
ag148
ag44
ag132
ag16
ag33
ag28
ag160
ag25
ag101
ag17
ag11
ag161
ag169
ag64
ag96
ag167
ag173
ag170
ag115
ag165
ag144
ag142
ag127
ag92
ag22
ag95
ag166
ag143
ag99
ag204
ag114
ag141
ag172
ag31
ag118
ag171
ag102
ag110
ag147
ag140
ag107
ag112
ag38
ag42
ag159
ag34
ag36
ag54
ag103
ag131
ag109
ag108
ag113
ag224
ag5
ag100
ag157
ag162
ag146
ag177
ag80
ag129
ag117
ag43
ag134
ag46
ag53
ag145
ag184
ag221
ag223
ag205
ag41
ag163
ag98
ag104
ag155
ag74
ag49
ag212
ag137
ag194
ag178
ag47
ag175
ag10
ag186
ag130
ag187
ag211
ag139
ag208
ag8
ag12
ag176
ag23
ag90
ag13
ag27
ag7
ag51
ag57
ag215
ag154
ag220
ag32
ag48
ag63
ag37
ag219
ag50
ag56
ag69
ag75
ag55
ag185
ag218
ag225
ag196
ag156
ag71
ag106
ag89
ag40
ag59
ag61
ag62
ag199
ag188
ag183
ag81
ag136
ag21
ag192
ag86
ag60
ag58
ag73
ag213
ag214
ag210
ag217
ag216
ag126
ag125
ag207
ag153
ag39
ag18
ag181
ag206
ag226
ag189
ag191
ag197
ag111
ag24
ag85
ag70
ag52
ag20
ag19
ag87
ag198
ag200
ag201
ag203
ag158
ag79
ag72
ag182
ag14
ag195
ag209
ag120
ag82
ag77
ag190
ag84
ag193
ag76
ag138
ag88
ag83
ag35
ag122
ag222
ag9
ag30
ag6
ag128
ag3
ag15
ag65
ag66
ag124
ag67
ag68
ag94
ag91
ag123
ag78
ag116
ag119
ag93
ag121
ag4
atp521
sI100
(S'Maltose_g_TopFoods'
p522
(lp523
g110
ag107
ag223
ag218
ag163
ag136
ag42
ag139
ag49
ag85
ag36
ag195
ag190
ag35
ag111
ag89
ag52
ag72
ag148
ag134
ag216
ag214
ag51
ag30
ag6
ag81
ag84
ag80
ag79
ag83
ag13
ag24
ag86
ag77
ag87
ag88
ag90
ag70
ag71
ag61
ag69
ag78
ag23
ag76
ag200
ag192
ag193
ag194
ag18
ag196
ag21
ag197
ag198
ag199
ag201
ag75
ag40
ag137
ag203
ag183
ag138
ag120
ag39
ag73
ag27
ag56
ag55
ag19
ag59
ag20
ag129
ag11
ag17
ag132
ag133
ag22
ag135
ag127
ag44
ag115
ag105
ag114
ag96
ag97
ag26
ag16
ag46
ag31
ag101
ag33
ag34
ag95
ag41
ag128
ag126
ag15
ag60
ag58
ag62
ag63
ag9
ag191
ag65
ag66
ag67
ag68
ag91
ag117
ag94
ag116
ag4
ag119
ag93
ag121
ag3
ag123
ag124
ag125
ag38
ag226
ag189
ag188
ag144
ag143
ag53
ag142
ag174
ag57
ag202
ag164
ag165
ag166
ag43
ag167
ag168
ag169
ag170
ag162
ag171
ag173
ag37
ag175
ag176
ag177
ag178
ag145
ag14
ag147
ag98
ag113
ag112
ag109
ag108
ag106
ag104
ag103
ag102
ag100
ag99
ag131
ag25
ag130
ag122
ag118
ag92
ag64
ag54
ag82
ag74
ag204
ag28
ag179
ag180
ag172
ag220
ag208
ag209
ag210
ag211
ag212
ag48
ag213
ag215
ag207
ag219
ag221
ag182
ag47
ag222
ag224
ag225
ag217
ag206
ag205
ag185
ag186
ag187
ag184
ag50
ag161
ag29
ag160
ag159
ag140
ag141
ag32
ag10
ag7
ag5
ag8
ag146
ag149
ag181
ag150
ag151
ag45
ag152
ag153
ag154
ag155
ag156
ag157
ag158
ag12
atp524
sI101
(S'Manganese_Mn_mg_TopFoods'
p525
(lp526
g16
ag132
ag101
ag162
ag11
ag46
ag22
ag135
ag160
ag34
ag17
ag133
ag97
ag141
ag44
ag92
ag45
ag159
ag140
ag102
ag103
ag161
ag104
ag118
ag142
ag172
ag100
ag26
ag204
ag107
ag110
ag115
ag5
ag152
ag131
ag164
ag179
ag150
ag105
ag134
ag169
ag95
ag202
ag148
ag64
ag28
ag151
ag149
ag147
ag166
ag168
ag165
ag53
ag31
ag48
ag29
ag54
ag180
ag99
ag143
ag127
ag174
ag170
ag114
ag8
ag144
ag7
ag33
ag25
ag38
ag96
ag130
ag42
ag173
ag109
ag43
ag146
ag145
ag129
ag117
ag167
ag108
ag171
ag36
ag191
ag211
ag10
ag157
ag176
ag221
ag163
ag184
ag74
ag185
ag89
ag98
ag50
ag80
ag112
ag113
ag122
ag215
ag41
ag139
ag57
ag156
ag217
ag106
ag88
ag219
ag194
ag223
ag186
ag51
ag83
ag49
ag155
ag59
ag210
ag154
ag137
ag213
ag126
ag212
ag187
ag220
ag218
ag226
ag30
ag61
ag216
ag192
ag75
ag62
ag79
ag207
ag32
ag90
ag188
ag125
ag182
ag81
ag181
ag153
ag189
ag84
ag47
ag128
ag177
ag136
ag60
ag82
ag70
ag214
ag72
ag76
ag85
ag178
ag158
ag201
ag195
ag58
ag35
ag203
ag190
ag193
ag209
ag23
ag196
ag197
ag52
ag87
ag222
ag120
ag39
ag200
ag198
ag55
ag13
ag63
ag69
ag56
ag71
ag175
ag77
ag27
ag37
ag111
ag12
ag138
ag40
ag6
ag19
ag18
ag21
ag20
ag14
ag24
ag86
ag78
ag205
ag73
ag65
ag183
ag199
ag9
ag66
ag206
ag93
ag225
ag224
ag124
ag123
ag3
ag121
ag119
ag67
ag4
ag208
ag116
ag91
ag15
ag68
ag94
atp527
sI102
(S'Menaquinone_4_mcg_TopFoods'
p528
(lp529
g27
ag13
ag64
ag20
ag38
ag36
ag111
ag76
ag78
ag79
ag80
ag81
ag49
ag30
ag83
ag84
ag85
ag86
ag87
ag88
ag89
ag51
ag90
ag70
ag72
ag71
ag61
ag69
ag56
ag18
ag55
ag77
ag75
ag60
ag23
ag186
ag187
ag188
ag189
ag190
ag191
ag192
ag193
ag194
ag195
ag196
ag197
ag198
ag199
ag200
ag201
ag137
ag203
ag183
ag138
ag120
ag136
ag73
ag59
ag58
ag35
ag132
ag22
ag135
ag127
ag44
ag115
ag105
ag114
ag96
ag97
ag21
ag26
ag16
ag46
ag31
ag101
ag33
ag34
ag95
ag19
ag40
ag39
ag24
ag6
ag133
ag17
ag62
ag11
ag63
ag185
ag65
ag66
ag67
ag68
ag15
ag91
ag94
ag116
ag4
ag119
ag93
ag121
ag3
ag123
ag124
ag125
ag117
ag126
ag128
ag41
ag129
ag9
ag226
ag205
ag43
ag144
ag143
ag53
ag142
ag174
ag57
ag202
ag163
ag164
ag165
ag166
ag167
ag14
ag168
ag169
ag170
ag162
ag171
ag173
ag37
ag175
ag176
ag177
ag178
ag145
ag147
ag206
ag99
ag113
ag112
ag110
ag109
ag108
ag107
ag106
ag104
ag103
ag102
ag100
ag98
ag25
ag134
ag131
ag130
ag122
ag118
ag92
ag54
ag82
ag74
ag204
ag28
ag179
ag180
ag172
ag207
ag182
ag184
ag208
ag209
ag210
ag211
ag212
ag48
ag213
ag214
ag215
ag216
ag161
ag218
ag219
ag220
ag221
ag47
ag222
ag223
ag52
ag224
ag225
ag217
ag139
ag50
ag181
ag158
ag42
ag160
ag159
ag140
ag141
ag32
ag10
ag7
ag5
ag8
ag146
ag29
ag148
ag149
ag150
ag151
ag45
ag152
ag153
ag154
ag155
ag156
ag157
ag12
atp530
sI103
(S'Methionine_g_TopFoods'
p531
(lp532
g177
ag180
ag37
ag69
ag45
ag178
ag135
ag63
ag152
ag150
ag27
ag176
ag164
ag56
ag55
ag175
ag12
ag133
ag149
ag105
ag161
ag202
ag61
ag62
ag71
ag59
ag111
ag39
ag35
ag60
ag179
ag29
ag33
ag42
ag142
ag171
ag174
ag96
ag170
ag36
ag166
ag92
ag64
ag97
ag109
ag167
ag151
ag173
ag162
ag144
ag160
ag110
ag169
ag165
ag147
ag172
ag102
ag141
ag54
ag168
ag53
ag145
ag104
ag108
ag127
ag74
ag98
ag112
ag43
ag204
ag159
ag25
ag14
ag40
ag99
ag118
ag28
ag103
ag148
ag21
ag131
ag38
ag113
ag130
ag11
ag134
ag31
ag163
ag5
ag44
ag146
ag18
ag22
ag24
ag194
ag78
ag19
ag20
ag139
ag16
ag46
ag48
ag41
ag7
ag8
ag82
ag157
ag117
ag10
ag137
ag57
ag90
ag218
ag129
ag221
ag23
ag80
ag209
ag211
ag136
ag154
ag140
ag49
ag220
ag184
ag156
ag6
ag87
ag207
ag198
ag219
ag223
ag75
ag210
ag224
ag32
ag212
ag191
ag216
ag88
ag181
ag213
ag192
ag85
ag158
ag195
ag76
ag203
ag201
ag190
ag153
ag51
ag225
ag52
ag214
ag81
ag77
ag72
ag70
ag200
ag84
ag206
ag83
ag217
ag182
ag138
ag197
ag196
ag193
ag222
ag128
ag17
ag132
ag34
ag115
ag143
ag114
ag122
ag26
ag101
ag95
ag13
ag100
ag106
ag107
ag126
ag89
ag125
ag86
ag79
ag73
ag120
ag183
ag199
ag189
ag188
ag187
ag186
ag185
ag205
ag47
ag215
ag208
ag50
ag30
ag155
ag124
ag58
ag123
ag3
ag121
ag93
ag119
ag4
ag116
ag94
ag91
ag15
ag68
ag67
ag66
ag65
ag9
ag226
atp533
sI104
(S'Niacin_mg_TopFoods'
p534
(lp535
g177
ag178
ag144
ag166
ag31
ag127
ag135
ag59
ag27
ag152
ag107
ag149
ag63
ag37
ag69
ag104
ag25
ag61
ag110
ag55
ag62
ag14
ag103
ag108
ag28
ag97
ag36
ag98
ag109
ag56
ag71
ag204
ag45
ag102
ag17
ag60
ag100
ag105
ag54
ag44
ag147
ag26
ag150
ag38
ag160
ag194
ag202
ag118
ag131
ag99
ag58
ag112
ag148
ag43
ag209
ag33
ag180
ag74
ag137
ag142
ag179
ag95
ag165
ag168
ag130
ag106
ag140
ag151
ag167
ag169
ag174
ag175
ag139
ag173
ag170
ag171
ag34
ag224
ag113
ag141
ag143
ag90
ag134
ag96
ag164
ag223
ag16
ag162
ag64
ag53
ag132
ag114
ag11
ag46
ag42
ag115
ag49
ag176
ag211
ag153
ag159
ag183
ag22
ag187
ag172
ag215
ag101
ag75
ag29
ag50
ag184
ag207
ag82
ag92
ag154
ag117
ag23
ag70
ag163
ag129
ag133
ag7
ag225
ag146
ag195
ag208
ag186
ag10
ag212
ag220
ag157
ag188
ag48
ag201
ag51
ag221
ag213
ag89
ag218
ag199
ag155
ag80
ag5
ag203
ag181
ag72
ag185
ag122
ag41
ag156
ag47
ag30
ag8
ag191
ag161
ag126
ag88
ag200
ag190
ag81
ag217
ag145
ag197
ag210
ag87
ag196
ag192
ag136
ag219
ag205
ag226
ag79
ag189
ag198
ag73
ag158
ag77
ag216
ag138
ag206
ag86
ag76
ag52
ag193
ag85
ag40
ag182
ag21
ag111
ag83
ag57
ag84
ag120
ag214
ag24
ag19
ag20
ag32
ag39
ag222
ag18
ag12
ag6
ag13
ag35
ag9
ag119
ag68
ag15
ag91
ag94
ag116
ag4
ag67
ag78
ag93
ag121
ag3
ag123
ag124
ag125
ag65
ag128
ag66
atp536
sI105
(S'Pantothenic_acid_mg_TopFoods'
p537
(lp538
g59
ag151
ag61
ag62
ag35
ag60
ag127
ag167
ag166
ag161
ag103
ag202
ag162
ag174
ag168
ag39
ag209
ag170
ag27
ag118
ag131
ag22
ag90
ag92
ag36
ag165
ag74
ag25
ag55
ag56
ag149
ag71
ag110
ag135
ag63
ag204
ag144
ag179
ag12
ag43
ag44
ag141
ag177
ag146
ag31
ag107
ag29
ag159
ag100
ag54
ag69
ag130
ag105
ag223
ag5
ag95
ag142
ag155
ag164
ag173
ag171
ag64
ag140
ag104
ag176
ag175
ag169
ag45
ag113
ag178
ag40
ag58
ag143
ag102
ag48
ag21
ag49
ag14
ag98
ag109
ag218
ag172
ag215
ag194
ag11
ag38
ag47
ag42
ag16
ag134
ag148
ag75
ag28
ag80
ag112
ag13
ag87
ag18
ag19
ag189
ag20
ag82
ag211
ag99
ag24
ag46
ag106
ag53
ag180
ag163
ag51
ag185
ag133
ag156
ag160
ag50
ag81
ag8
ag181
ag83
ag79
ag77
ag147
ag213
ag89
ag207
ag7
ag214
ag41
ag206
ag117
ag198
ag184
ag72
ag23
ag225
ag220
ag52
ag138
ag197
ag191
ag216
ag70
ag208
ag129
ag212
ag85
ag201
ag196
ag111
ag120
ag10
ag136
ag158
ag200
ag219
ag195
ag108
ag224
ag190
ag210
ag145
ag217
ag88
ag182
ag153
ag6
ag188
ag139
ag57
ag226
ag192
ag157
ag221
ag154
ag222
ag150
ag76
ag193
ag32
ag126
ag97
ag122
ag96
ag114
ag26
ag73
ag183
ag66
ag101
ag33
ag115
ag203
ag137
ag199
ag187
ag186
ag205
ag34
ag30
ag78
ag67
ag68
ag15
ag91
ag94
ag116
ag4
ag119
ag93
ag121
ag3
ag123
ag124
ag125
ag65
ag128
ag9
ag37
ag17
ag132
ag86
ag84
ag152
atp539
sI106
(S'Phenylalanine_g_TopFoods'
p540
(lp541
g164
ag180
ag165
ag202
ag45
ag135
ag167
ag169
ag142
ag174
ag166
ag170
ag171
ag53
ag144
ag105
ag149
ag43
ag148
ag177
ag162
ag161
ag42
ag96
ag168
ag173
ag152
ag37
ag12
ag179
ag29
ag150
ag27
ag92
ag69
ag33
ag63
ag61
ag145
ag59
ag62
ag151
ag178
ag55
ag56
ag133
ag110
ag176
ag172
ag147
ag60
ag175
ag111
ag71
ag102
ag35
ag39
ag36
ag140
ag141
ag97
ag104
ag74
ag98
ag127
ag64
ag108
ag204
ag54
ag99
ag11
ag160
ag25
ag28
ag134
ag163
ag112
ag44
ag22
ag38
ag131
ag159
ag118
ag103
ag31
ag5
ag113
ag130
ag40
ag21
ag78
ag14
ag16
ag109
ag146
ag139
ag18
ag82
ag7
ag48
ag24
ag8
ag117
ag19
ag20
ag41
ag57
ag211
ag46
ag221
ag129
ag157
ag218
ag10
ag194
ag90
ag209
ag80
ag156
ag220
ag184
ag154
ag207
ag210
ag23
ag72
ag49
ag51
ag223
ag219
ag212
ag136
ag213
ag6
ag77
ag32
ag87
ag83
ag158
ag216
ag181
ag198
ag201
ag88
ag182
ag153
ag85
ag192
ag70
ag191
ag76
ag217
ag214
ag195
ag81
ag197
ag52
ag200
ag190
ag206
ag193
ag84
ag196
ag222
ag75
ag205
ag50
ag132
ag188
ag187
ag186
ag122
ag185
ag115
ag155
ag114
ag100
ag26
ag13
ag208
ag225
ag101
ag106
ag34
ag95
ag215
ag143
ag224
ag107
ag47
ag17
ag124
ag189
ag128
ag30
ag86
ag73
ag89
ag120
ag138
ag183
ag203
ag137
ag199
ag58
ag9
ag65
ag66
ag67
ag68
ag15
ag91
ag94
ag116
ag4
ag119
ag93
ag121
ag3
ag123
ag79
ag125
ag126
ag226
atp542
sI107
(S'Phosphorus_P_mg_TopFoods'
p543
(lp544
g45
ag133
ag152
ag105
ag180
ag164
ag149
ag151
ag179
ag150
ag29
ag160
ag33
ag174
ag92
ag161
ag26
ag202
ag42
ag168
ag97
ag148
ag13
ag64
ag142
ag95
ag169
ag135
ag170
ag171
ag100
ag110
ag12
ag35
ag166
ag167
ag165
ag102
ag25
ag172
ag107
ag103
ag28
ag144
ag43
ag131
ag143
ag127
ag173
ag109
ag204
ag31
ag11
ag59
ag108
ag96
ag53
ag141
ag99
ag36
ag54
ag38
ag159
ag113
ag147
ag118
ag37
ag162
ag177
ag132
ag134
ag115
ag27
ag112
ag61
ag5
ag17
ag176
ag175
ag39
ag62
ag145
ag140
ag137
ag56
ag71
ag101
ag60
ag178
ag63
ag74
ag163
ag22
ag40
ag69
ag48
ag55
ag58
ag44
ag21
ag146
ag98
ag7
ag194
ag104
ag8
ag224
ag34
ag114
ag139
ag41
ag16
ag187
ag10
ag130
ag186
ag24
ag18
ag106
ag209
ag19
ag20
ag14
ag80
ag218
ag46
ag223
ag49
ag184
ag117
ag57
ag208
ag129
ag156
ag211
ag90
ag221
ag155
ag157
ag215
ag154
ag181
ag75
ag219
ag50
ag220
ag199
ag205
ag153
ag189
ag183
ag207
ag212
ag136
ag9
ag122
ag225
ag47
ag203
ag188
ag210
ag185
ag182
ag192
ag79
ag216
ag70
ag217
ag6
ag213
ag214
ag72
ag51
ag82
ag89
ag23
ag85
ag32
ag158
ag197
ag76
ag195
ag125
ag138
ag73
ag120
ag190
ag111
ag84
ag81
ag201
ag198
ag226
ag193
ag222
ag87
ag88
ag206
ag52
ag83
ag200
ag196
ag77
ag30
ag191
ag86
ag126
ag128
ag78
ag65
ag66
ag67
ag68
ag91
ag94
ag116
ag4
ag119
ag93
ag121
ag3
ag123
ag124
ag15
atp545
sI108
(S'Phytosterols_mg_TopFoods'
p546
(lp547
g124
ag119
ag150
ag149
ag15
ag116
ag94
ag16
ag121
ag42
ag123
ag44
ag127
ag17
ag164
ag96
ag171
ag105
ag140
ag4
ag22
ag3
ag31
ag33
ag114
ag26
ag97
ag115
ag53
ag8
ag101
ag143
ag210
ag81
ag46
ag219
ag184
ag167
ag72
ag51
ag182
ag212
ag214
ag85
ag181
ag217
ag216
ag117
ag156
ag195
ag157
ag193
ag158
ag190
ag213
ag153
ag191
ag215
ag76
ag52
ag10
ag89
ag88
ag87
ag38
ag86
ag23
ag137
ag203
ag183
ag138
ag120
ag136
ag73
ag75
ag84
ag77
ag78
ag79
ag80
ag90
ag30
ag83
ag49
ag63
ag70
ag13
ag129
ag11
ag132
ag133
ag135
ag34
ag95
ag19
ag20
ag71
ag24
ag6
ag35
ag111
ag39
ag40
ag21
ag18
ag41
ag128
ag126
ag125
ag61
ag69
ag56
ag27
ag55
ag59
ag60
ag58
ag62
ag200
ag9
ag65
ag66
ag67
ag68
ag91
ag93
ag201
ag226
ag199
ag198
ag28
ag25
ag147
ag14
ag145
ag144
ag142
ag174
ag57
ag202
ag163
ag165
ag166
ag43
ag168
ag169
ag170
ag162
ag173
ag37
ag175
ag204
ag74
ag82
ag102
ag113
ag112
ag110
ag109
ag108
ag107
ag106
ag104
ag103
ag100
ag54
ag99
ag98
ag134
ag131
ag130
ag122
ag118
ag92
ag64
ag176
ag177
ag178
ag205
ag218
ag220
ag221
ag47
ag222
ag223
ag224
ag225
ag206
ag36
ag48
ag185
ag186
ag187
ag188
ag189
ag192
ag194
ag196
ag197
ag207
ag211
ag179
ag146
ag180
ag172
ag161
ag160
ag159
ag141
ag32
ag7
ag5
ag29
ag209
ag148
ag151
ag45
ag152
ag154
ag155
ag50
ag139
ag208
ag12
atp548
sI109
(S'Potassium_K_mg_TopFoods'
p549
(lp550
g135
ag202
ag127
ag11
ag31
ag164
ag26
ag132
ag97
ag95
ag171
ag165
ag33
ag22
ag173
ag44
ag167
ag168
ag174
ag101
ag170
ag137
ag42
ag16
ag169
ag194
ag146
ag142
ag43
ag143
ag156
ag17
ag179
ag45
ag96
ag187
ag186
ag105
ag148
ag133
ag162
ag166
ag223
ag151
ag80
ag141
ag53
ag29
ag49
ag180
ag149
ag224
ag221
ag160
ag144
ag28
ag64
ag157
ag177
ag5
ag34
ag161
ag71
ag215
ag131
ag90
ag150
ag114
ag155
ag25
ag117
ag147
ag23
ag172
ag100
ag107
ag47
ag46
ag92
ag75
ag212
ag50
ag70
ag204
ag159
ag152
ag48
ag110
ag208
ag178
ag134
ag140
ag102
ag12
ag99
ag51
ag8
ag176
ag115
ag211
ag181
ag154
ag27
ag37
ag219
ag7
ag38
ag188
ag207
ag209
ag218
ag113
ag136
ag108
ag184
ag129
ag103
ag226
ag112
ag104
ag118
ag10
ag86
ag72
ag192
ag153
ag175
ag40
ag32
ag225
ag139
ag56
ag58
ag145
ag189
ag21
ag158
ag81
ag59
ag63
ag213
ag62
ag200
ag61
ag36
ag109
ag85
ag183
ag57
ag220
ag163
ag205
ag55
ag79
ag54
ag84
ag199
ag210
ag69
ag206
ag76
ag195
ag98
ag196
ag198
ag60
ag203
ag216
ag201
ag74
ag197
ag111
ag89
ag190
ag18
ag217
ag41
ag185
ag24
ag126
ag214
ag182
ag77
ag120
ag39
ag19
ag87
ag20
ag13
ag193
ag52
ag125
ag35
ag191
ag222
ag138
ag106
ag14
ag83
ag73
ag88
ag130
ag9
ag82
ag30
ag6
ag122
ag128
ag121
ag93
ag68
ag65
ag66
ag67
ag15
ag119
ag91
ag3
ag124
ag116
ag123
ag4
ag78
ag94
atp551
sI110
(S'Proline_g_TopFoods'
p552
(lp553
g105
ag133
ag164
ag127
ag102
ag202
ag135
ag12
ag142
ag44
ag110
ag147
ag169
ag22
ag74
ag104
ag98
ag144
ag45
ag204
ag180
ag31
ag108
ag96
ag149
ag166
ag109
ag167
ag174
ag145
ag170
ag53
ag37
ag43
ag177
ag171
ag78
ag148
ag165
ag42
ag92
ag61
ag161
ag33
ag36
ag62
ag69
ag97
ag63
ag54
ag99
ag134
ag162
ag112
ag29
ag150
ag179
ag55
ag131
ag173
ag60
ag152
ag56
ag64
ag151
ag59
ag178
ag27
ag172
ag40
ag160
ag176
ag71
ag38
ag35
ag175
ag21
ag163
ag80
ag113
ag141
ag39
ag25
ag28
ag11
ag140
ag111
ag46
ag82
ag18
ag16
ag159
ag41
ag118
ag103
ag24
ag19
ag20
ag70
ag5
ag14
ag130
ag146
ag211
ag139
ag57
ag194
ag7
ag8
ag117
ag49
ag221
ag157
ag223
ag218
ag129
ag72
ag48
ag90
ag10
ag154
ag6
ag76
ag75
ag209
ag197
ag220
ag156
ag207
ag77
ag87
ag81
ag210
ag216
ag198
ag184
ag136
ag213
ag219
ag212
ag85
ag206
ag83
ag32
ag201
ag88
ag51
ag190
ag181
ag192
ag52
ag158
ag193
ag217
ag153
ag195
ag23
ag191
ag214
ag84
ag200
ag182
ag196
ag222
ag225
ag115
ag122
ag205
ag155
ag100
ag185
ag132
ag17
ag186
ag114
ag50
ag224
ag26
ag13
ag106
ag101
ag107
ag34
ag95
ag188
ag208
ag47
ag215
ag187
ag3
ag128
ag89
ag9
ag143
ag58
ag168
ag199
ag137
ag203
ag126
ag86
ag183
ag30
ag138
ag120
ag73
ag65
ag66
ag67
ag68
ag15
ag91
ag94
ag116
ag4
ag119
ag93
ag121
ag79
ag123
ag124
ag125
ag189
ag226
atp554
sI111
(S'Protein_g_TopFoods'
p555
(lp556
g202
ag164
ag169
ag45
ag142
ag177
ag180
ag135
ag105
ag166
ag37
ag174
ag161
ag53
ag167
ag171
ag170
ag43
ag96
ag168
ag27
ag143
ag69
ag144
ag165
ag63
ag148
ag149
ag162
ag13
ag178
ag42
ag33
ag12
ag55
ag56
ag176
ag173
ag179
ag61
ag29
ag133
ag62
ag26
ag175
ag150
ag58
ag95
ag71
ag145
ag59
ag92
ag152
ag151
ag35
ag97
ag60
ag172
ag141
ag110
ag78
ag127
ag64
ag107
ag160
ag31
ag25
ag102
ag104
ag163
ag74
ag98
ag28
ag39
ag147
ag204
ag132
ag54
ag111
ag134
ag101
ag36
ag100
ag99
ag108
ag22
ag131
ag106
ag109
ag11
ag112
ag159
ag17
ag44
ag38
ag140
ag34
ag118
ag103
ag113
ag5
ag114
ag14
ag48
ag16
ag130
ag115
ag40
ag139
ag21
ag146
ag46
ag137
ag82
ag41
ag7
ag194
ag57
ag18
ag24
ag8
ag186
ag9
ag80
ag117
ag187
ag19
ag122
ag129
ag20
ag209
ag211
ag157
ag208
ag218
ag224
ag50
ag75
ag183
ag221
ag49
ag10
ag215
ag155
ag225
ag90
ag154
ag184
ag220
ag212
ag223
ag23
ag189
ag219
ag156
ag199
ag72
ag89
ag210
ag216
ag47
ag185
ag70
ag136
ag182
ag120
ag51
ag85
ag87
ag181
ag153
ag213
ag205
ag188
ag198
ag207
ag195
ag192
ag226
ag79
ag6
ag203
ag201
ag197
ag81
ag88
ag32
ag73
ag76
ag190
ag138
ag158
ag217
ag214
ag77
ag52
ag191
ag200
ag86
ag125
ag196
ag83
ag206
ag84
ag193
ag222
ag30
ag126
ag121
ag3
ag123
ag124
ag4
ag128
ag93
ag116
ag94
ag91
ag15
ag68
ag67
ag66
ag65
ag119
atp557
sI112
(S'Retinol_mcg_TopFoods'
p558
(lp559
g66
ag61
ag59
ag62
ag6
ag9
ag35
ag39
ag13
ag19
ag20
ag176
ag55
ag175
ag18
ag37
ag58
ag69
ag63
ag178
ag21
ag24
ag177
ag56
ag60
ag27
ag40
ag90
ag70
ag72
ag71
ag51
ag89
ag88
ag87
ag30
ag86
ag85
ag84
ag83
ag38
ag49
ag201
ag189
ag190
ag191
ag192
ag193
ag194
ag195
ag196
ag197
ag198
ag199
ag200
ag137
ag81
ag203
ag183
ag138
ag120
ag136
ag73
ag23
ag75
ag76
ag78
ag79
ag80
ag77
ag67
ag65
ag97
ag22
ag135
ag127
ag44
ag115
ag105
ag114
ag96
ag26
ag132
ag16
ag46
ag31
ag101
ag33
ag34
ag95
ag111
ag133
ag17
ag187
ag121
ag68
ag15
ag91
ag94
ag116
ag4
ag119
ag93
ag3
ag11
ag123
ag124
ag125
ag117
ag126
ag128
ag41
ag129
ag188
ag226
ag186
ag165
ag14
ag145
ag144
ag143
ag53
ag142
ag174
ag57
ag202
ag163
ag164
ag166
ag42
ag43
ag167
ag168
ag169
ag170
ag162
ag171
ag173
ag179
ag180
ag172
ag147
ag25
ag28
ag204
ag113
ag112
ag110
ag109
ag108
ag107
ag106
ag104
ag103
ag102
ag100
ag99
ag98
ag134
ag131
ag130
ag122
ag118
ag92
ag64
ag54
ag82
ag74
ag161
ag160
ag185
ag219
ag209
ag210
ag211
ag212
ag48
ag213
ag214
ag215
ag207
ag216
ag218
ag220
ag159
ag221
ag47
ag222
ag223
ag52
ag224
ag225
ag217
ag206
ag205
ag36
ag208
ag184
ag182
ag139
ag140
ag141
ag32
ag10
ag7
ag5
ag8
ag146
ag29
ag148
ag149
ag150
ag151
ag45
ag152
ag153
ag154
ag155
ag156
ag157
ag158
ag181
ag50
ag12
atp560
sI113
(S'Riboflavin_mg_TopFoods'
p561
(lp562
g135
ag59
ag127
ag202
ag148
ag61
ag62
ag31
ag164
ag60
ag98
ag137
ag35
ag44
ag104
ag39
ag142
ag114
ag12
ag111
ag25
ag34
ag151
ag209
ag17
ag33
ag96
ag177
ag149
ag97
ag211
ag26
ag64
ag109
ag54
ag95
ag147
ag132
ag105
ag178
ag131
ag150
ag43
ag71
ag174
ag40
ag167
ag163
ag58
ag13
ag160
ag170
ag173
ag169
ag16
ag171
ag107
ag21
ag194
ag162
ag37
ag112
ag187
ag28
ag157
ag165
ag24
ag101
ag22
ag56
ag27
ag117
ag19
ag152
ag20
ag102
ag55
ag140
ag215
ag179
ag42
ag14
ag221
ag45
ag224
ag172
ag11
ag180
ag63
ag18
ag92
ag166
ag139
ag159
ag161
ag90
ag183
ag186
ag218
ag204
ag108
ag134
ag110
ag141
ag225
ag106
ag48
ag208
ag181
ag100
ag53
ag143
ag144
ag220
ag145
ag69
ag199
ag47
ag5
ag188
ag133
ag99
ag126
ag168
ag154
ag80
ag113
ag210
ag103
ag74
ag129
ag155
ag176
ag36
ag51
ag9
ag41
ag76
ag49
ag203
ag38
ag223
ag86
ag184
ag29
ag207
ag115
ag32
ag23
ag146
ag189
ag81
ag153
ag118
ag46
ag88
ag198
ag75
ag216
ag219
ag72
ag158
ag201
ag50
ag185
ag213
ag197
ag6
ag212
ag85
ag214
ag156
ag191
ag195
ag79
ag226
ag175
ag30
ag205
ag196
ag182
ag82
ag193
ag89
ag190
ag70
ag136
ag222
ag217
ag52
ag130
ag57
ag8
ag120
ag192
ag138
ag84
ag83
ag77
ag206
ag87
ag122
ag200
ag73
ag7
ag10
ag78
ag128
ag94
ag65
ag66
ag67
ag68
ag15
ag91
ag116
ag125
ag4
ag119
ag93
ag121
ag123
ag124
ag3
atp563
sI114
(S'Selenium_Se_mcg_TopFoods'
p564
(lp565
g105
ag98
ag107
ag177
ag102
ag35
ag61
ag62
ag152
ag59
ag149
ag144
ag37
ag108
ag109
ag147
ag178
ag175
ag150
ag41
ag36
ag106
ag39
ag82
ag58
ag179
ag27
ag56
ag31
ag111
ag29
ag5
ag164
ag69
ag145
ag161
ag12
ag63
ag112
ag113
ag130
ag134
ag48
ag135
ag131
ag13
ag55
ag133
ag173
ag176
ag38
ag99
ag33
ag110
ag43
ag57
ag71
ag8
ag45
ag209
ag170
ag14
ag64
ag143
ag25
ag169
ag142
ag174
ag165
ag167
ag168
ag202
ag166
ag16
ag42
ag163
ag96
ag127
ag11
ag10
ag28
ag132
ag26
ag95
ag172
ag22
ag17
ag44
ag60
ag148
ag159
ag19
ag20
ag140
ag40
ag21
ag24
ag171
ag46
ag49
ag34
ag54
ag114
ag218
ag141
ag204
ag18
ag139
ag115
ag224
ag137
ag226
ag32
ag51
ag6
ag9
ag157
ag211
ag208
ag215
ag221
ag70
ag200
ag219
ag187
ag155
ag156
ag160
ag212
ag184
ag201
ag210
ag220
ag225
ag186
ag87
ag196
ag30
ag206
ag80
ag79
ag158
ag75
ag203
ag199
ag183
ag154
ag189
ag198
ag182
ag194
ag138
ag52
ag90
ag217
ag89
ag120
ag153
ag213
ag50
ag129
ag181
ag216
ag214
ag77
ag81
ag185
ag136
ag192
ag195
ag197
ag191
ag76
ag88
ag83
ag128
ag207
ag72
ag188
ag193
ag92
ag180
ag118
ag100
ag122
ag151
ag7
ag101
ag104
ag103
ag146
ag97
ag205
ag126
ag66
ag190
ag73
ag162
ag78
ag84
ag85
ag86
ag53
ag223
ag222
ag47
ag74
ag65
ag67
ag117
ag68
ag15
ag91
ag94
ag116
ag4
ag119
ag93
ag121
ag3
ag123
ag124
ag125
ag23
atp566
sI115
(S'Serine_g_TopFoods'
p567
(lp568
g164
ag202
ag169
ag45
ag180
ag144
ag35
ag42
ag171
ag166
ag142
ag161
ag174
ag96
ag177
ag170
ag167
ag135
ag53
ag37
ag29
ag149
ag43
ag152
ag162
ag165
ag173
ag145
ag39
ag179
ag150
ag133
ag12
ag33
ag172
ag148
ag97
ag27
ag160
ag178
ag151
ag111
ag61
ag56
ag62
ag36
ag176
ag105
ag69
ag92
ag63
ag141
ag59
ag71
ag110
ag175
ag25
ag55
ag28
ag54
ag60
ag104
ag102
ag127
ag74
ag163
ag98
ag204
ag64
ag147
ag78
ag134
ag159
ag109
ag99
ag131
ag112
ag108
ag140
ag38
ag22
ag118
ag103
ag5
ag40
ag113
ag21
ag44
ag130
ag11
ag146
ag14
ag16
ag31
ag18
ag41
ag24
ag46
ag19
ag48
ag20
ag7
ag139
ag82
ag8
ag194
ag57
ag80
ag117
ag211
ag218
ag10
ag90
ag221
ag157
ag23
ag220
ag129
ag209
ag87
ag72
ag156
ag154
ag75
ag223
ag219
ag49
ag207
ag216
ag136
ag83
ag6
ag212
ag181
ag184
ag213
ag51
ag210
ag32
ag81
ag201
ag191
ag197
ag198
ag195
ag192
ag70
ag85
ag158
ag153
ag217
ag200
ag190
ag88
ag77
ag76
ag182
ag214
ag206
ag52
ag84
ag196
ag193
ag222
ag155
ag114
ag122
ag115
ag187
ag185
ag186
ag26
ag188
ag189
ag132
ag17
ag100
ag89
ag205
ag225
ag101
ag34
ag95
ag13
ag47
ag215
ag106
ag107
ag208
ag50
ag224
ag199
ag86
ag128
ag30
ag79
ag73
ag120
ag138
ag183
ag168
ag58
ag203
ag143
ag9
ag65
ag66
ag67
ag68
ag15
ag91
ag94
ag116
ag4
ag119
ag93
ag121
ag3
ag123
ag124
ag125
ag137
ag126
ag226
atp569
sI116
(S'Sodium_Na_mg_TopFoods'
p570
(lp571
g128
ag163
ag177
ag31
ag41
ag12
ag13
ag144
ag135
ag106
ag37
ag78
ag16
ag26
ag111
ag132
ag39
ag32
ag19
ag178
ag180
ag56
ag97
ag55
ag69
ag114
ag157
ag219
ag61
ag62
ag63
ag40
ag60
ag59
ag176
ag21
ag58
ag175
ag207
ag127
ag96
ag143
ag71
ag17
ag211
ag35
ag215
ag18
ag27
ag24
ag104
ag20
ag155
ag158
ag142
ag146
ag5
ag9
ag112
ag218
ag14
ag179
ag117
ag168
ag210
ag224
ag11
ag186
ag133
ag44
ag171
ag187
ag162
ag125
ag153
ag34
ag22
ag221
ag8
ag208
ag173
ag200
ag101
ag216
ag166
ag165
ag48
ag33
ag204
ag174
ag95
ag170
ag115
ag152
ag167
ag10
ag169
ag145
ag73
ag105
ag202
ag212
ag147
ag29
ag206
ag28
ag109
ag150
ag6
ag199
ag74
ag80
ag46
ag50
ag225
ag57
ag126
ag156
ag149
ag196
ag103
ag110
ag90
ag154
ag45
ag194
ag53
ag184
ag220
ag107
ag205
ag113
ag82
ag209
ag139
ag140
ag122
ag43
ag64
ag54
ag30
ag129
ag70
ag226
ag118
ag108
ag36
ag182
ag7
ag38
ag192
ag151
ag137
ag183
ag136
ag189
ag86
ag76
ag161
ag83
ag102
ag49
ag121
ag47
ag214
ag213
ag100
ag131
ag160
ag87
ag172
ag99
ag75
ag23
ag134
ag120
ag92
ag138
ag197
ag164
ag181
ag98
ag42
ag25
ag222
ag223
ag148
ag52
ag185
ag217
ag81
ag188
ag88
ag201
ag203
ag72
ag51
ag89
ag84
ag79
ag193
ag191
ag85
ag65
ag77
ag130
ag198
ag195
ag67
ag66
ag190
ag159
ag141
ag68
ag15
ag91
ag94
ag116
ag4
ag119
ag93
ag3
ag123
ag124
atp572
sI117
(S'Starch_g_TopFoods'
p573
(lp574
g36
ag38
ag102
ag107
ag110
ag64
ag53
ag122
ag47
ag29
ag51
ag80
ag144
ag42
ag45
ag23
ag207
ag160
ag140
ag220
ag214
ag148
ag41
ag141
ag159
ag184
ag161
ag90
ag172
ag222
ag217
ag88
ag71
ag85
ag86
ag87
ag60
ag59
ag89
ag35
ag72
ag55
ag27
ag56
ag69
ag70
ag61
ag84
ag30
ag83
ag18
ag199
ag200
ag201
ag137
ag203
ag183
ag138
ag120
ag136
ag73
ag21
ag111
ag75
ag76
ag77
ag78
ag79
ag40
ag39
ag81
ag49
ag58
ag6
ag33
ag62
ag126
ag129
ag11
ag17
ag132
ag133
ag22
ag135
ag127
ag19
ag44
ag95
ag115
ag105
ag114
ag96
ag97
ag26
ag16
ag46
ag31
ag34
ag128
ag117
ag63
ag125
ag101
ag24
ag9
ag65
ag66
ag67
ag68
ag15
ag197
ag20
ag13
ag91
ag94
ag116
ag4
ag119
ag93
ag121
ag3
ag123
ag124
ag198
ag226
ag196
ag145
ag142
ag174
ag57
ag202
ag163
ag164
ag165
ag166
ag43
ag167
ag168
ag169
ag170
ag162
ag171
ag173
ag37
ag175
ag176
ag177
ag178
ag143
ag14
ag180
ag147
ag113
ag112
ag109
ag108
ag106
ag104
ag103
ag100
ag99
ag98
ag134
ag131
ag130
ag118
ag92
ag54
ag82
ag74
ag204
ag28
ag25
ag179
ag32
ag195
ag48
ag215
ag216
ag218
ag219
ag221
ag223
ag52
ag224
ag225
ag206
ag205
ag185
ag186
ag187
ag188
ag189
ag190
ag191
ag192
ag193
ag194
ag213
ag212
ag10
ag211
ag7
ag5
ag8
ag146
ag149
ag150
ag151
ag152
ag153
ag154
ag155
ag156
ag157
ag158
ag181
ag50
ag139
ag182
ag208
ag209
ag210
ag12
atp575
sI118
(S'Stigmasterol_mg_TopFoods'
p576
(lp577
g179
ag133
ag42
ag53
ag148
ag159
ag215
ag90
ag161
ag141
ag70
ag83
ag84
ag85
ag86
ag87
ag88
ag89
ag51
ag62
ag58
ag60
ag72
ag71
ag30
ag190
ag69
ag56
ag27
ag55
ag59
ag61
ag191
ag192
ag183
ag193
ag194
ag195
ag196
ag197
ag198
ag199
ag200
ag201
ag137
ag203
ag138
ag63
ag120
ag136
ag73
ag23
ag75
ag76
ag77
ag78
ag79
ag80
ag81
ag49
ag38
ag188
ag34
ag115
ag105
ag114
ag96
ag97
ag26
ag16
ag46
ag31
ag101
ag33
ag95
ag127
ag19
ag13
ag20
ag24
ag6
ag35
ag111
ag39
ag40
ag21
ag18
ag44
ag135
ag9
ag121
ag65
ag66
ag67
ag68
ag15
ag91
ag94
ag116
ag4
ag119
ag93
ag3
ag22
ag123
ag124
ag125
ag117
ag126
ag128
ag41
ag129
ag11
ag17
ag132
ag189
ag226
ag187
ag25
ag14
ag145
ag144
ag143
ag142
ag174
ag57
ag202
ag163
ag164
ag165
ag166
ag43
ag167
ag168
ag169
ag170
ag162
ag171
ag173
ag37
ag175
ag176
ag147
ag28
ag178
ag204
ag113
ag112
ag110
ag109
ag108
ag107
ag106
ag104
ag103
ag102
ag100
ag99
ag98
ag134
ag131
ag130
ag122
ag118
ag92
ag64
ag54
ag82
ag74
ag177
ag180
ag186
ag208
ag210
ag211
ag212
ag48
ag213
ag214
ag207
ag216
ag218
ag219
ag220
ag221
ag47
ag222
ag223
ag52
ag224
ag225
ag217
ag206
ag205
ag36
ag185
ag209
ag184
ag172
ag182
ag160
ag140
ag32
ag10
ag7
ag5
ag8
ag146
ag29
ag149
ag150
ag151
ag45
ag152
ag153
ag154
ag155
ag156
ag157
ag158
ag181
ag50
ag139
ag12
atp578
sI119
(S'Sucrose_g_TopFoods'
p579
(lp580
g49
ag30
ag194
ag201
ag42
ag197
ag191
ag72
ag29
ag139
ag195
ag140
ag141
ag135
ag148
ag159
ag105
ag207
ag160
ag43
ag149
ag200
ag172
ag144
ag51
ag11
ag133
ag222
ag28
ag190
ag52
ag179
ag45
ag161
ag182
ag44
ag134
ag127
ag31
ag131
ag193
ag107
ag184
ag110
ag223
ag38
ag217
ag23
ag220
ag102
ag36
ag213
ag41
ag185
ag211
ag47
ag83
ag85
ag76
ag136
ag88
ag218
ag158
ag216
ag157
ag80
ag111
ag35
ag89
ag90
ag214
ag46
ag22
ag16
ag18
ag86
ag87
ag21
ag26
ag101
ag96
ag114
ag115
ag97
ag75
ag33
ag84
ag77
ag95
ag19
ag13
ag20
ag24
ag6
ag81
ag79
ag39
ag40
ag78
ag34
ag116
ag4
ag66
ag124
ag9
ag65
ag123
ag3
ag121
ag73
ag62
ag68
ag15
ag91
ag94
ag93
ag119
ag63
ag58
ag132
ag69
ag70
ag17
ag129
ag71
ag128
ag61
ag56
ag60
ag126
ag117
ag125
ag27
ag55
ag59
ag67
ag226
ag120
ag164
ag145
ag143
ag53
ag142
ag174
ag57
ag202
ag163
ag165
ag147
ag166
ag167
ag168
ag169
ag170
ag162
ag171
ag173
ag14
ag25
ag175
ag99
ag113
ag112
ag109
ag108
ag106
ag104
ag103
ag100
ag98
ag204
ag130
ag122
ag118
ag92
ag64
ag54
ag82
ag74
ag37
ag176
ag138
ag187
ag215
ag219
ag221
ag224
ag225
ag206
ag205
ag186
ag188
ag212
ag189
ag192
ag196
ag198
ag199
ag137
ag203
ag183
ag48
ag210
ag177
ag150
ag178
ag180
ag32
ag10
ag7
ag5
ag8
ag146
ag151
ag209
ag152
ag153
ag154
ag155
ag156
ag181
ag50
ag208
ag12
atp581
sI120
(S'Sugars_total_g_TopFoods'
p582
(lp583
g30
ag183
ag223
ag137
ag187
ag186
ag49
ag80
ag78
ag194
ag224
ag192
ag188
ag70
ag23
ag81
ag76
ag203
ag125
ag189
ag201
ag85
ag126
ag51
ag143
ag162
ag197
ag222
ag127
ag88
ag190
ag191
ag193
ag198
ag72
ag136
ag75
ag195
ag200
ag199
ag196
ag40
ag42
ag202
ag5
ag164
ag135
ag31
ag21
ag77
ag170
ag110
ag105
ag219
ag167
ag144
ag8
ag52
ag163
ag29
ag139
ag24
ag154
ag20
ag217
ag89
ag19
ag207
ag166
ag18
ag140
ag185
ag148
ag141
ag83
ag182
ag44
ag87
ag159
ag160
ag213
ag10
ag220
ag11
ag216
ag43
ag133
ag115
ag181
ag107
ag149
ag172
ag32
ag28
ag99
ag120
ag16
ag47
ag26
ag171
ag46
ag209
ag38
ag158
ag13
ag17
ag218
ag212
ag138
ag214
ag36
ag179
ag184
ag45
ag208
ag226
ag134
ag161
ag48
ag211
ag131
ag41
ag215
ag109
ag108
ag147
ag210
ag111
ag90
ag103
ag22
ag113
ag33
ag35
ag156
ag157
ag204
ag100
ag102
ag39
ag129
ag150
ag106
ag130
ag82
ag6
ag128
ag74
ag117
ag205
ag124
ag123
ag3
ag121
ag93
ag4
ag116
ag119
ag97
ag54
ag132
ag64
ag92
ag118
ag122
ag114
ag96
ag91
ag98
ag101
ag34
ag95
ag104
ag112
ag94
ag65
ag15
ag68
ag165
ag168
ag169
ag173
ag79
ag37
ag175
ag176
ag177
ag178
ag73
ag180
ag7
ag146
ag151
ag152
ag153
ag155
ag50
ag221
ag225
ag57
ag84
ag174
ag55
ag67
ag66
ag206
ag9
ag63
ag62
ag58
ag60
ag59
ag27
ag86
ag56
ag69
ag61
ag71
ag25
ag14
ag145
ag53
ag142
ag12
atp584
sI121
(S'Theobromine_mg_TopFoods'
p585
(lp586
g38
ag36
ag79
ag80
ag81
ag49
ag30
ag83
ag84
ag85
ag86
ag87
ag88
ag89
ag51
ag90
ag70
ag72
ag71
ag61
ag69
ag56
ag27
ag55
ag59
ag60
ag58
ag78
ag77
ag76
ag197
ag186
ag187
ag188
ag189
ag190
ag191
ag192
ag193
ag194
ag195
ag196
ag198
ag75
ag199
ag200
ag201
ag137
ag203
ag183
ag138
ag120
ag136
ag73
ag23
ag62
ag63
ag9
ag34
ag115
ag105
ag114
ag96
ag97
ag26
ag16
ag46
ag31
ag101
ag33
ag95
ag127
ag19
ag13
ag20
ag24
ag6
ag35
ag111
ag39
ag40
ag21
ag18
ag44
ag135
ag65
ag3
ag66
ag67
ag68
ag15
ag91
ag94
ag116
ag4
ag119
ag93
ag121
ag123
ag22
ag124
ag125
ag117
ag126
ag128
ag41
ag129
ag11
ag17
ag132
ag133
ag185
ag226
ag205
ag166
ag145
ag144
ag143
ag53
ag142
ag174
ag57
ag202
ag163
ag164
ag165
ag43
ag147
ag167
ag168
ag169
ag170
ag162
ag171
ag173
ag37
ag175
ag176
ag177
ag14
ag25
ag179
ag99
ag113
ag112
ag110
ag109
ag108
ag107
ag106
ag104
ag103
ag102
ag100
ag98
ag28
ag134
ag131
ag130
ag122
ag118
ag92
ag64
ag54
ag82
ag74
ag204
ag178
ag180
ag206
ag207
ag182
ag184
ag208
ag209
ag210
ag211
ag212
ag48
ag213
ag214
ag215
ag216
ag50
ag218
ag219
ag220
ag221
ag47
ag222
ag223
ag52
ag224
ag225
ag217
ag139
ag181
ag172
ag146
ag161
ag42
ag160
ag159
ag140
ag141
ag32
ag10
ag7
ag5
ag8
ag29
ag158
ag148
ag149
ag150
ag151
ag45
ag152
ag153
ag154
ag155
ag156
ag157
ag12
atp587
sI122
(S'Thiamin_mg_TopFoods'
p588
(lp589
g179
ag149
ag140
ag151
ag104
ag142
ag174
ag164
ag42
ag133
ag170
ag98
ag105
ag150
ag92
ag43
ag159
ag147
ag141
ag165
ag169
ag166
ag26
ag167
ag152
ag202
ag168
ag173
ag171
ag17
ag53
ag102
ag143
ag162
ag103
ag224
ag29
ag54
ag28
ag118
ag36
ag100
ag97
ag107
ag112
ag33
ag108
ag110
ag160
ag64
ag146
ag115
ag172
ag95
ag99
ag127
ag38
ag96
ag131
ag114
ag109
ag59
ag134
ag45
ag139
ag31
ag113
ag204
ag148
ag48
ag184
ag101
ag135
ag106
ag180
ag44
ag41
ag35
ag74
ag145
ag16
ag60
ag130
ag132
ag211
ag156
ag225
ag71
ag22
ag144
ag186
ag23
ag25
ag175
ag47
ag163
ag61
ag27
ag183
ag154
ag62
ag56
ag198
ag80
ag220
ag209
ag208
ag191
ag157
ag117
ag177
ag176
ag55
ag63
ag218
ag210
ag76
ag75
ag90
ag189
ag215
ag207
ag8
ag82
ag216
ag81
ag14
ag5
ag69
ag11
ag197
ag161
ag178
ag155
ag49
ag223
ag181
ag40
ag13
ag19
ag182
ag20
ag21
ag153
ag120
ag79
ag39
ag86
ag213
ag200
ag88
ag77
ag129
ag52
ag185
ag219
ag51
ag12
ag72
ag84
ag7
ag32
ag138
ag199
ag18
ag201
ag58
ag190
ag85
ag214
ag37
ag221
ag136
ag10
ag212
ag217
ag188
ag195
ag196
ag46
ag50
ag24
ag57
ag226
ag89
ag122
ag222
ag87
ag30
ag193
ag83
ag158
ag126
ag203
ag205
ag137
ag9
ag34
ag187
ag73
ag6
ag70
ag192
ag111
ag194
ag78
ag66
ag65
ag124
ag67
ag68
ag15
ag125
ag206
ag94
ag116
ag4
ag119
ag93
ag121
ag3
ag128
ag123
ag91
atp590
sI123
(S'Threonine_g_TopFoods'
p591
(lp592
g164
ag202
ag169
ag37
ag177
ag135
ag142
ag180
ag27
ag45
ag171
ag69
ag149
ag174
ag63
ag96
ag170
ag56
ag53
ag178
ag166
ag105
ag176
ag55
ag61
ag43
ag62
ag173
ag145
ag167
ag175
ag165
ag162
ag179
ag33
ag150
ag71
ag59
ag161
ag152
ag60
ag29
ag35
ag133
ag42
ag12
ag97
ag148
ag172
ag151
ag92
ag39
ag144
ag25
ag141
ag127
ag28
ag163
ag111
ag110
ag147
ag64
ag109
ag140
ag160
ag102
ag78
ag108
ag104
ag204
ag112
ag36
ag54
ag99
ag134
ag74
ag98
ag11
ag44
ag38
ag159
ag131
ag14
ag118
ag31
ag103
ag113
ag17
ag5
ag22
ag40
ag21
ag130
ag139
ag207
ag16
ag146
ag41
ag48
ag24
ag18
ag194
ag19
ag46
ag117
ag20
ag7
ag211
ag57
ag157
ag8
ag209
ag129
ag82
ag221
ag75
ag218
ag23
ag80
ag10
ag220
ag154
ag90
ag184
ag210
ag156
ag72
ag219
ag136
ag87
ag49
ag223
ag6
ag213
ag212
ag216
ag201
ag181
ag51
ag83
ag52
ag32
ag70
ag153
ag81
ag158
ag192
ag76
ag85
ag182
ag88
ag217
ag214
ag191
ag195
ag197
ag198
ag84
ag200
ag206
ag193
ag196
ag77
ag190
ag222
ag188
ag100
ag187
ag189
ag122
ag115
ag186
ag132
ag114
ag185
ag86
ag26
ag155
ag205
ag34
ag95
ag225
ag13
ag224
ag47
ag106
ag107
ag215
ag208
ag50
ag101
ag126
ag143
ag128
ag89
ag30
ag79
ag73
ag120
ag138
ag183
ag203
ag137
ag199
ag58
ag168
ag9
ag65
ag66
ag67
ag68
ag15
ag91
ag94
ag116
ag4
ag119
ag93
ag121
ag3
ag123
ag124
ag125
ag226
atp593
sI124
(S'Tocopherol_beta_mg_TopFoods'
p594
(lp595
g133
ag149
ag3
ag123
ag159
ag127
ag141
ag110
ag31
ag148
ag102
ag107
ag144
ag172
ag121
ag64
ag36
ag185
ag35
ag90
ag89
ag29
ag23
ag45
ag177
ag135
ag38
ag196
ag11
ag39
ag88
ag209
ag85
ag161
ag214
ag207
ag80
ag217
ag218
ag201
ag138
ag83
ag84
ag200
ag199
ag86
ag87
ag198
ag183
ag51
ag111
ag70
ag72
ag71
ag61
ag69
ag197
ag30
ag49
ag76
ag21
ag120
ag136
ag73
ag40
ag75
ag77
ag137
ag78
ag79
ag27
ag18
ag203
ag81
ag56
ag114
ag6
ag41
ag93
ag33
ag101
ag46
ag124
ag125
ag117
ag126
ag128
ag129
ag105
ag17
ag132
ag16
ag22
ag26
ag97
ag96
ag44
ag115
ag119
ag4
ag116
ag34
ag59
ag24
ag20
ag13
ag60
ag58
ag62
ag63
ag9
ag65
ag19
ag66
ag195
ag67
ag68
ag95
ag15
ag91
ag94
ag55
ag226
ag194
ag43
ag143
ag53
ag142
ag174
ag57
ag202
ag163
ag164
ag165
ag166
ag167
ag180
ag168
ag169
ag170
ag162
ag171
ag173
ag37
ag175
ag176
ag178
ag145
ag14
ag147
ag25
ag113
ag112
ag109
ag108
ag106
ag104
ag103
ag100
ag99
ag98
ag134
ag131
ag130
ag122
ag118
ag92
ag54
ag82
ag74
ag204
ag28
ag179
ag42
ag193
ag52
ag48
ag213
ag215
ag216
ag219
ag220
ag221
ag47
ag222
ag223
ag224
ag160
ag225
ag206
ag205
ag186
ag187
ag188
ag189
ag190
ag191
ag192
ag212
ag211
ag210
ag208
ag140
ag32
ag10
ag7
ag5
ag8
ag146
ag150
ag151
ag152
ag153
ag154
ag155
ag156
ag157
ag158
ag181
ag50
ag139
ag182
ag184
ag12
atp596
sI125
(S'Tocopherol_delta_mg_TopFoods'
p597
(lp598
g172
ag161
ag123
ag185
ag44
ag89
ag105
ag42
ag144
ag36
ag159
ag28
ag45
ag29
ag179
ag64
ag46
ag127
ag133
ag3
ag43
ag41
ag148
ag35
ag39
ag88
ag71
ag38
ag139
ag210
ag149
ag90
ag51
ag209
ag217
ag80
ag196
ag56
ag69
ag61
ag197
ag203
ag199
ag200
ag201
ag72
ag137
ag70
ag27
ag55
ag198
ag77
ag76
ag87
ag78
ag75
ag79
ag23
ag73
ag49
ag30
ag136
ag83
ag84
ag85
ag120
ag138
ag183
ag86
ag81
ag67
ag59
ag33
ag22
ag135
ag115
ag114
ag96
ag97
ag26
ag16
ag31
ag101
ag34
ag60
ag95
ag19
ag13
ag20
ag24
ag6
ag111
ag40
ag21
ag18
ag132
ag17
ag11
ag129
ag58
ag62
ag63
ag9
ag65
ag66
ag194
ag68
ag15
ag91
ag94
ag116
ag4
ag119
ag93
ag121
ag124
ag125
ag117
ag126
ag128
ag195
ag226
ag193
ag166
ag145
ag143
ag53
ag142
ag174
ag57
ag202
ag163
ag164
ag165
ag167
ag147
ag168
ag169
ag170
ag162
ag171
ag173
ag37
ag175
ag176
ag177
ag14
ag25
ag192
ag100
ag113
ag112
ag110
ag109
ag108
ag107
ag106
ag104
ag103
ag102
ag99
ag204
ag98
ag134
ag131
ag130
ag122
ag118
ag92
ag54
ag82
ag74
ag178
ag180
ag160
ag223
ag214
ag215
ag207
ag216
ag218
ag219
ag220
ag221
ag47
ag222
ag52
ag140
ag224
ag225
ag206
ag205
ag186
ag187
ag188
ag189
ag190
ag191
ag213
ag48
ag212
ag211
ag141
ag32
ag10
ag7
ag5
ag8
ag146
ag150
ag151
ag152
ag153
ag154
ag155
ag156
ag157
ag158
ag181
ag50
ag182
ag184
ag208
ag12
atp599
sI126
(S'Tocopherol_gamma_mg_TopFoods'
p600
(lp601
g45
ag161
ag159
ag44
ag172
ag42
ag179
ag105
ag123
ag160
ag46
ag133
ag144
ag28
ag22
ag43
ag29
ag64
ag127
ag31
ag41
ag36
ag102
ag38
ag110
ag135
ag185
ag89
ag35
ag139
ag107
ag121
ag11
ag148
ag8
ag115
ag39
ag210
ag80
ag149
ag88
ag90
ag59
ag157
ag30
ag71
ag218
ag177
ag129
ag184
ag58
ag211
ag27
ag196
ag217
ag190
ag76
ag56
ag49
ag85
ag13
ag83
ag193
ag136
ag214
ag200
ag195
ag51
ag209
ag201
ag65
ag66
ag97
ag84
ag26
ag16
ag101
ag81
ag33
ag34
ag79
ag78
ag95
ag19
ag77
ag20
ag75
ag23
ag24
ag73
ag6
ag111
ag120
ag40
ag21
ag138
ag183
ag203
ag18
ag86
ag87
ag96
ag69
ag67
ag9
ag63
ag137
ag62
ag15
ag60
ag91
ag55
ag94
ag116
ag4
ag119
ag114
ag61
ag93
ag3
ag124
ag125
ag117
ag72
ag70
ag126
ag128
ag17
ag132
ag68
ag226
ag199
ag165
ag145
ag143
ag53
ag142
ag174
ag57
ag202
ag163
ag164
ag166
ag178
ag167
ag168
ag169
ag170
ag162
ag171
ag173
ag37
ag175
ag14
ag147
ag25
ag204
ag113
ag112
ag109
ag108
ag106
ag104
ag103
ag100
ag99
ag98
ag134
ag131
ag130
ag122
ag118
ag92
ag54
ag82
ag74
ag176
ag180
ag198
ag225
ag216
ag219
ag220
ag221
ag47
ag222
ag223
ag52
ag224
ag206
ag140
ag205
ag186
ag187
ag188
ag189
ag191
ag192
ag194
ag197
ag207
ag215
ag213
ag48
ag141
ag32
ag10
ag7
ag5
ag146
ag150
ag151
ag152
ag153
ag154
ag155
ag156
ag158
ag181
ag50
ag182
ag208
ag212
ag12
atp602
sI127
(S'Tocotrienol_alpha_mg_TopFoods'
p603
(lp604
g127
ag31
ag3
ag8
ag22
ag107
ag110
ag102
ag133
ag11
ag38
ag51
ag39
ag23
ag71
ag197
ag209
ag182
ag214
ag216
ag218
ag190
ag85
ag195
ag80
ag35
ag201
ag41
ag193
ag158
ag191
ag13
ag56
ag49
ag207
ag90
ag52
ag217
ag137
ag84
ag81
ag198
ag18
ag30
ag196
ag83
ag194
ag199
ag86
ag192
ag87
ag88
ag89
ag20
ag24
ag79
ag203
ag6
ag78
ag77
ag76
ag75
ag70
ag73
ag200
ag40
ag21
ag136
ag120
ag138
ag183
ag111
ag16
ag72
ag132
ag123
ag124
ag125
ag117
ag126
ag128
ag129
ag34
ag17
ag33
ag26
ag101
ag135
ag46
ag44
ag115
ag105
ag114
ag96
ag97
ag95
ag121
ag93
ag119
ag61
ag19
ag69
ag27
ag55
ag59
ag60
ag58
ag62
ag9
ag65
ag66
ag67
ag68
ag15
ag91
ag94
ag116
ag4
ag63
ag226
ag189
ag188
ag144
ag143
ag53
ag142
ag174
ag57
ag202
ag163
ag164
ag165
ag166
ag43
ag167
ag168
ag169
ag170
ag162
ag171
ag173
ag37
ag175
ag176
ag177
ag145
ag14
ag147
ag134
ag113
ag112
ag109
ag108
ag106
ag104
ag103
ag100
ag99
ag98
ag131
ag25
ag130
ag122
ag118
ag92
ag64
ag54
ag82
ag74
ag204
ag28
ag178
ag179
ag180
ag221
ag184
ag208
ag210
ag211
ag212
ag48
ag213
ag215
ag219
ag220
ag47
ag50
ag222
ag223
ag224
ag225
ag206
ag205
ag36
ag185
ag186
ag187
ag139
ag181
ag172
ag146
ag161
ag42
ag160
ag159
ag140
ag141
ag32
ag10
ag7
ag5
ag29
ag157
ag148
ag149
ag150
ag151
ag45
ag152
ag153
ag154
ag155
ag156
ag12
atp605
sI128
(S'Tocotrienol_beta_mg_TopFoods'
p606
(lp607
g107
ag3
ag29
ag196
ag56
ag201
ag86
ag89
ag88
ag87
ag38
ag51
ag84
ag83
ag30
ag49
ag81
ag85
ag90
ag79
ag70
ag72
ag71
ag61
ag69
ag27
ag55
ag59
ag60
ag80
ag77
ag78
ag62
ag187
ag188
ag189
ag190
ag191
ag192
ag193
ag194
ag195
ag197
ag198
ag199
ag200
ag137
ag203
ag183
ag138
ag120
ag136
ag73
ag23
ag75
ag76
ag58
ag9
ag63
ag34
ag115
ag105
ag114
ag96
ag97
ag26
ag16
ag46
ag31
ag101
ag33
ag95
ag127
ag19
ag13
ag20
ag24
ag6
ag35
ag111
ag39
ag40
ag21
ag18
ag44
ag135
ag185
ag121
ag65
ag66
ag67
ag68
ag15
ag91
ag94
ag116
ag4
ag119
ag93
ag123
ag22
ag124
ag125
ag117
ag126
ag128
ag41
ag129
ag11
ag17
ag132
ag133
ag186
ag226
ag36
ag43
ag144
ag143
ag53
ag142
ag174
ag57
ag202
ag163
ag164
ag165
ag166
ag167
ag14
ag168
ag169
ag170
ag162
ag171
ag173
ag37
ag175
ag176
ag177
ag178
ag145
ag147
ag205
ag98
ag113
ag112
ag110
ag109
ag108
ag106
ag104
ag103
ag102
ag100
ag99
ag134
ag25
ag131
ag130
ag122
ag118
ag92
ag64
ag54
ag82
ag74
ag204
ag28
ag179
ag180
ag172
ag216
ag184
ag208
ag209
ag210
ag211
ag212
ag48
ag213
ag214
ag215
ag207
ag218
ag161
ag219
ag220
ag221
ag47
ag222
ag223
ag52
ag224
ag225
ag217
ag206
ag182
ag139
ag50
ag181
ag42
ag160
ag159
ag140
ag141
ag32
ag10
ag7
ag5
ag8
ag146
ag148
ag149
ag150
ag151
ag45
ag152
ag153
ag154
ag155
ag156
ag157
ag158
ag12
atp608
sI129
(S'Tocotrienol_delta_mg_TopFoods'
p609
(lp610
g3
ag38
ag36
ag187
ag51
ag81
ag49
ag30
ag83
ag84
ag85
ag86
ag87
ag88
ag89
ag186
ag90
ag188
ag70
ag72
ag71
ag61
ag69
ag56
ag27
ag55
ag59
ag60
ag58
ag80
ag79
ag78
ag62
ag189
ag190
ag191
ag192
ag193
ag194
ag195
ag196
ag197
ag198
ag199
ag200
ag201
ag137
ag203
ag183
ag138
ag120
ag136
ag73
ag23
ag75
ag76
ag77
ag63
ag9
ag34
ag115
ag105
ag114
ag96
ag97
ag26
ag16
ag46
ag31
ag101
ag33
ag95
ag65
ag19
ag13
ag20
ag24
ag6
ag35
ag111
ag39
ag40
ag21
ag18
ag44
ag127
ag135
ag22
ag66
ag67
ag68
ag15
ag91
ag94
ag116
ag4
ag119
ag93
ag121
ag123
ag124
ag125
ag117
ag126
ag128
ag41
ag129
ag11
ag17
ag132
ag133
ag185
ag226
ag205
ag166
ag145
ag144
ag143
ag53
ag142
ag174
ag57
ag202
ag163
ag164
ag165
ag43
ag147
ag167
ag168
ag169
ag170
ag162
ag171
ag173
ag37
ag175
ag176
ag177
ag14
ag25
ag179
ag99
ag113
ag112
ag110
ag109
ag108
ag107
ag106
ag104
ag103
ag102
ag100
ag98
ag28
ag134
ag131
ag130
ag122
ag118
ag92
ag64
ag54
ag82
ag74
ag204
ag178
ag180
ag206
ag207
ag182
ag184
ag208
ag209
ag210
ag211
ag212
ag48
ag213
ag214
ag215
ag216
ag50
ag218
ag219
ag220
ag221
ag47
ag222
ag223
ag52
ag224
ag225
ag217
ag139
ag181
ag172
ag146
ag161
ag42
ag160
ag159
ag140
ag141
ag32
ag10
ag7
ag5
ag8
ag29
ag158
ag148
ag149
ag150
ag151
ag45
ag152
ag153
ag154
ag155
ag156
ag157
ag12
atp611
sI130
(S'Tocotrienol_gamma_mg_TopFoods'
p612
(lp613
g31
ag42
ag161
ag160
ag3
ag83
ag29
ag133
ag136
ag127
ag88
ag105
ag45
ag11
ag38
ag102
ag56
ag190
ag36
ag39
ag13
ag196
ag199
ag192
ag194
ag86
ag87
ag193
ag89
ag51
ag72
ag90
ag70
ag84
ag71
ag61
ag69
ag191
ag27
ag85
ag30
ag195
ag200
ag201
ag198
ag137
ag203
ag183
ag138
ag120
ag197
ag73
ag23
ag75
ag76
ag59
ag77
ag78
ag79
ag80
ag81
ag49
ag55
ag63
ag60
ag33
ag135
ag44
ag115
ag114
ag96
ag97
ag26
ag16
ag46
ag101
ag34
ag132
ag95
ag19
ag20
ag24
ag6
ag35
ag111
ag40
ag21
ag18
ag22
ag17
ag58
ag116
ag62
ag188
ag9
ag65
ag66
ag67
ag68
ag15
ag91
ag94
ag4
ag129
ag119
ag93
ag121
ag123
ag124
ag125
ag117
ag126
ag128
ag41
ag189
ag226
ag187
ag166
ag145
ag144
ag143
ag53
ag142
ag174
ag57
ag202
ag163
ag164
ag165
ag43
ag186
ag167
ag168
ag169
ag170
ag162
ag171
ag173
ag37
ag175
ag176
ag177
ag14
ag147
ag25
ag28
ag113
ag112
ag110
ag109
ag108
ag107
ag106
ag104
ag103
ag100
ag99
ag98
ag134
ag131
ag130
ag122
ag118
ag92
ag64
ag54
ag82
ag74
ag204
ag178
ag179
ag180
ag208
ag210
ag211
ag212
ag48
ag213
ag214
ag215
ag207
ag216
ag218
ag219
ag220
ag221
ag47
ag222
ag223
ag52
ag224
ag225
ag217
ag206
ag205
ag185
ag209
ag184
ag172
ag182
ag159
ag140
ag141
ag32
ag10
ag7
ag5
ag8
ag146
ag148
ag149
ag150
ag151
ag152
ag153
ag154
ag155
ag156
ag157
ag158
ag181
ag50
ag139
ag12
atp614
sI131
(S'Total_lipid_fat_g_TopFoods'
p615
(lp616
g121
ag93
ag4
ag116
ag94
ag91
ag15
ag124
ag67
ag68
ag119
ag66
ag65
ag123
ag3
ag6
ag140
ag159
ag14
ag160
ag172
ag5
ag141
ag161
ag9
ag149
ag148
ag150
ag144
ag166
ag45
ag180
ag42
ag29
ag179
ag133
ag151
ag115
ag105
ag7
ag8
ag114
ag106
ag152
ag35
ag12
ag13
ag10
ag26
ag202
ag164
ag142
ag95
ag97
ag90
ag33
ag31
ag16
ag127
ag169
ag177
ag39
ag60
ag145
ag34
ag71
ag17
ag92
ag101
ag143
ag96
ag64
ag162
ag163
ag55
ag132
ag135
ag61
ag178
ag59
ag112
ag62
ag44
ag36
ag56
ag54
ag37
ag146
ag43
ag113
ag176
ag69
ag99
ag25
ag41
ag38
ag19
ag20
ag22
ag18
ag11
ag28
ag63
ag107
ag103
ag118
ag27
ag102
ag183
ag110
ag175
ag147
ag53
ag58
ag173
ag100
ag109
ag57
ag131
ag168
ag108
ag21
ag134
ag165
ag211
ag130
ag204
ag174
ag86
ag170
ag46
ag137
ag189
ag167
ag206
ag30
ag98
ag104
ag24
ag75
ag80
ag171
ag194
ag212
ag117
ag185
ag205
ag74
ag23
ag129
ag224
ag79
ag215
ag136
ag48
ag89
ag203
ag208
ag139
ag199
ag78
ag49
ag72
ag157
ag201
ag218
ag209
ag88
ag87
ag51
ag221
ag192
ag197
ag81
ag120
ag84
ag217
ag225
ag190
ag122
ag153
ag196
ag195
ag186
ag207
ag73
ag220
ag138
ag222
ag187
ag226
ag155
ag85
ag32
ag154
ag184
ag40
ag70
ag213
ag219
ag111
ag156
ag188
ag76
ag82
ag52
ag223
ag210
ag200
ag193
ag83
ag191
ag198
ag214
ag182
ag50
ag77
ag216
ag158
ag181
ag47
ag126
ag125
ag128
atp617
sI132
(S'Tryptophan_g_TopFoods'
p618
(lp619
g142
ag164
ag45
ag202
ag135
ag152
ag96
ag180
ag150
ag149
ag177
ag161
ag174
ag179
ag170
ag169
ag29
ag12
ag27
ag171
ag37
ag167
ag69
ag105
ag97
ag42
ag166
ag63
ag33
ag145
ag92
ag55
ag144
ag178
ag173
ag53
ag61
ag56
ag165
ag176
ag148
ag147
ag62
ag44
ag162
ag175
ag60
ag141
ag25
ag204
ag17
ag133
ag28
ag151
ag35
ag59
ag108
ag102
ag11
ag172
ag36
ag104
ag64
ag39
ag74
ag98
ag43
ag163
ag168
ag71
ag109
ag110
ag111
ag99
ag134
ag54
ag131
ag160
ag38
ag118
ag159
ag103
ag5
ag14
ag130
ag127
ag31
ag140
ag112
ag48
ag22
ag146
ag57
ag117
ag46
ag113
ag82
ag24
ag7
ag19
ag20
ag157
ag129
ag8
ag139
ag209
ag211
ag23
ag218
ag137
ag40
ag221
ag16
ag21
ag10
ag154
ag90
ag75
ag18
ag80
ag220
ag219
ag224
ag184
ag136
ag72
ag182
ag201
ag181
ag49
ag156
ag207
ag6
ag212
ag76
ag216
ag195
ag194
ag225
ag158
ag210
ag198
ag51
ag85
ag190
ag41
ag213
ag32
ag87
ag196
ag217
ag153
ag203
ag52
ag223
ag70
ag77
ag81
ag214
ag191
ag200
ag206
ag84
ag138
ag88
ag83
ag193
ag197
ag222
ag26
ag132
ag126
ag128
ag101
ag143
ag106
ag125
ag100
ag95
ag107
ag122
ag115
ag13
ag114
ag34
ag155
ag124
ag188
ag78
ag73
ag120
ag183
ag199
ag192
ag189
ag187
ag123
ag186
ag185
ag205
ag47
ag215
ag208
ag50
ag79
ag30
ag86
ag89
ag3
ag121
ag93
ag119
ag4
ag116
ag94
ag91
ag15
ag68
ag67
ag66
ag65
ag9
ag58
ag226
atp620
sI133
(S'Tyrosine_g_TopFoods'
p621
(lp622
g164
ag142
ag169
ag202
ag135
ag45
ag12
ag166
ag180
ag177
ag37
ag144
ag27
ag105
ag174
ag96
ag170
ag150
ag69
ag161
ag133
ag63
ag167
ag56
ag145
ag178
ag35
ag53
ag149
ag171
ag55
ag59
ag33
ag176
ag61
ag71
ag175
ag62
ag92
ag152
ag60
ag165
ag151
ag173
ag43
ag162
ag140
ag42
ag160
ag29
ag39
ag179
ag22
ag111
ag148
ag97
ag172
ag112
ag127
ag110
ag141
ag204
ag147
ag163
ag104
ag109
ag54
ag74
ag98
ag36
ag99
ag11
ag130
ag108
ag44
ag40
ag113
ag118
ag102
ag103
ag64
ag21
ag25
ag28
ag38
ag14
ag78
ag159
ag5
ag131
ag31
ag16
ag134
ag18
ag24
ag19
ag20
ag146
ag46
ag41
ag139
ag7
ag157
ag57
ag23
ag8
ag211
ag82
ag117
ag194
ag184
ag48
ag221
ag129
ag10
ag218
ag90
ag87
ag209
ag207
ag181
ag220
ag154
ag6
ag80
ag156
ag219
ag136
ag83
ag210
ag81
ag75
ag72
ag213
ag32
ag217
ag212
ag216
ag191
ag153
ag201
ag198
ag223
ag49
ag197
ag206
ag195
ag85
ag70
ag182
ag52
ag214
ag76
ag200
ag158
ag51
ag88
ag84
ag192
ag190
ag77
ag196
ag193
ag222
ag143
ag26
ag187
ag188
ag114
ag168
ag115
ag189
ag185
ag132
ag186
ag89
ag50
ag17
ag122
ag34
ag95
ag205
ag13
ag225
ag224
ag47
ag215
ag100
ag106
ag107
ag208
ag101
ag199
ag137
ag68
ag86
ag30
ag79
ag155
ag73
ag120
ag58
ag138
ag183
ag9
ag65
ag66
ag67
ag15
ag128
ag91
ag94
ag116
ag4
ag119
ag93
ag121
ag3
ag123
ag124
ag125
ag203
ag126
ag226
atp623
sI134
(S'Valine_g_TopFoods'
p624
(lp625
g164
ag135
ag202
ag45
ag180
ag142
ag169
ag105
ag177
ag37
ag149
ag161
ag42
ag53
ag167
ag171
ag12
ag27
ag174
ag170
ag96
ag133
ag29
ag69
ag166
ag179
ag63
ag178
ag33
ag43
ag151
ag61
ag59
ag150
ag173
ag176
ag55
ag62
ag152
ag35
ag165
ag92
ag56
ag97
ag175
ag60
ag145
ag162
ag39
ag148
ag71
ag111
ag144
ag172
ag127
ag168
ag141
ag160
ag110
ag25
ag11
ag28
ag147
ag64
ag44
ag36
ag54
ag102
ag104
ag99
ag204
ag163
ag22
ag74
ag98
ag31
ag108
ag109
ag17
ag112
ag40
ag118
ag21
ag103
ag5
ag159
ag38
ag140
ag14
ag113
ag134
ag130
ag16
ag131
ag78
ag48
ag18
ag146
ag139
ag209
ag46
ag7
ag24
ag19
ag20
ag8
ag194
ag41
ag117
ag82
ag57
ag157
ag211
ag10
ag221
ag129
ag218
ag80
ag90
ag184
ag220
ag75
ag23
ag154
ag212
ag49
ag210
ag207
ag223
ag156
ag136
ag6
ag219
ag213
ag87
ag51
ag72
ag83
ag32
ag201
ag216
ag198
ag181
ag158
ag192
ag88
ag81
ag70
ag153
ag85
ag191
ag214
ag195
ag76
ag197
ag182
ag84
ag217
ag200
ag193
ag206
ag190
ag52
ag77
ag222
ag196
ag143
ag115
ag205
ag224
ag225
ag132
ag95
ag114
ag122
ag26
ag47
ag101
ag34
ag126
ag13
ag215
ag100
ag106
ag107
ag128
ag67
ag185
ag155
ag50
ag188
ag208
ag89
ag86
ag30
ag189
ag79
ag73
ag120
ag138
ag183
ag203
ag137
ag199
ag187
ag58
ag125
ag186
ag124
ag123
ag3
ag121
ag93
ag119
ag4
ag116
ag94
ag91
ag15
ag68
ag66
ag65
ag9
ag226
atp626
sI135
(S'Vitamin_A_IU_IU_TopFoods'
p627
(lp628
g66
ag127
ag31
ag78
ag207
ag61
ag59
ag157
ag62
ag181
ag210
ag215
ag34
ag129
ag211
ag117
ag17
ag208
ag221
ag6
ag194
ag135
ag72
ag44
ag9
ag35
ag70
ag26
ag154
ag201
ag196
ag77
ag114
ag139
ag184
ag12
ag220
ag197
ag75
ag218
ag52
ag13
ag22
ag39
ag132
ag42
ag33
ag190
ag188
ag195
ag95
ag46
ag79
ag205
ag198
ag89
ag145
ag19
ag20
ag104
ag16
ag43
ag223
ag90
ag81
ag183
ag156
ag97
ag202
ag167
ag23
ag41
ag214
ag115
ag226
ag176
ag55
ag18
ag216
ag175
ag136
ag163
ag155
ag162
ag76
ag37
ag58
ag51
ag85
ag83
ag87
ag206
ag96
ag69
ag53
ag191
ag159
ag222
ag88
ag152
ag63
ag174
ag21
ag149
ag170
ag200
ag178
ag151
ag138
ag24
ag30
ag192
ag143
ag86
ag177
ag161
ag84
ag219
ag185
ag56
ag168
ag105
ag27
ag60
ag224
ag160
ag165
ag199
ag193
ag213
ag147
ag120
ag164
ag141
ag172
ag109
ag45
ag64
ag217
ag131
ag80
ag49
ag110
ag150
ag48
ag100
ag102
ag204
ag173
ag40
ag158
ag225
ag73
ag113
ag148
ag182
ag106
ag118
ag28
ag11
ag74
ag128
ag82
ag126
ag133
ag54
ag25
ag92
ag99
ag122
ag29
ag130
ag50
ag134
ag98
ag124
ag101
ag103
ag107
ag108
ag112
ag111
ag153
ag125
ag93
ag123
ag36
ag32
ag71
ag142
ag140
ag57
ag47
ag180
ag186
ag212
ag187
ag179
ag189
ag171
ag166
ag137
ag203
ag10
ag7
ag3
ag15
ag121
ag169
ag119
ag4
ag116
ag94
ag91
ag68
ag5
ag67
ag65
ag14
ag146
ag144
ag8
ag209
ag38
atp629
sI136
(S'Vitamin_A_RAE_mcg_TopFoods'
p630
(lp631
g66
ag61
ag59
ag62
ag127
ag31
ag207
ag6
ag157
ag9
ag181
ag35
ag210
ag215
ag34
ag129
ag211
ag117
ag17
ag39
ag13
ag208
ag221
ag194
ag135
ag72
ag44
ag26
ag70
ag154
ag201
ag19
ag196
ag20
ag77
ag114
ag139
ag184
ag220
ag197
ag218
ag75
ag55
ag176
ag52
ag18
ag22
ag175
ag132
ag42
ag37
ag58
ag33
ag69
ag188
ag190
ag95
ag195
ag63
ag79
ag46
ag178
ag205
ag24
ag21
ag177
ag89
ag198
ag56
ag60
ag27
ag16
ag104
ag156
ag90
ag97
ag43
ag81
ag223
ag183
ag167
ag202
ag214
ag216
ag23
ag226
ag115
ag41
ag136
ag163
ag155
ag159
ag222
ag170
ag162
ag200
ag191
ag88
ag51
ag76
ag96
ag206
ag174
ag149
ag87
ag53
ag151
ag85
ag83
ag30
ag105
ag143
ag192
ag161
ag86
ag185
ag219
ag84
ag138
ag224
ag40
ag168
ag109
ag164
ag199
ag165
ag120
ag141
ag147
ag193
ag172
ag160
ag217
ag64
ag131
ag45
ag213
ag101
ag111
ag91
ag133
ag94
ag116
ag15
ag4
ag119
ag68
ag67
ag93
ag121
ag3
ag123
ag124
ag125
ag126
ag65
ag128
ag11
ag38
ag71
ag173
ag169
ag166
ag57
ag142
ag144
ag145
ag14
ag25
ag28
ag204
ag74
ag82
ag54
ag92
ag118
ag122
ag130
ag134
ag98
ag99
ag100
ag102
ag103
ag106
ag107
ag108
ag110
ag112
ag113
ag171
ag179
ag49
ag180
ag80
ag78
ag73
ag203
ag137
ag189
ag187
ag186
ag36
ag225
ag47
ag48
ag212
ag209
ag182
ag50
ag158
ag153
ag152
ag150
ag148
ag29
ag146
ag8
ag5
ag7
ag10
ag32
ag140
ag12
atp632
sI137
(S'Vitamin_B_12_added_mcg_TopFoods'
p633
(lp634
g38
ag36
ag79
ag80
ag81
ag49
ag30
ag83
ag84
ag85
ag86
ag87
ag88
ag89
ag51
ag90
ag70
ag72
ag71
ag61
ag69
ag56
ag27
ag55
ag59
ag60
ag58
ag78
ag77
ag76
ag197
ag186
ag187
ag188
ag189
ag190
ag191
ag192
ag193
ag194
ag195
ag196
ag198
ag75
ag199
ag200
ag201
ag137
ag203
ag183
ag138
ag120
ag136
ag73
ag23
ag62
ag63
ag9
ag34
ag115
ag105
ag114
ag96
ag97
ag26
ag16
ag46
ag31
ag101
ag33
ag95
ag127
ag19
ag13
ag20
ag24
ag6
ag35
ag111
ag39
ag40
ag21
ag18
ag44
ag135
ag65
ag3
ag66
ag67
ag68
ag15
ag91
ag94
ag116
ag4
ag119
ag93
ag121
ag123
ag22
ag124
ag125
ag117
ag126
ag128
ag41
ag129
ag11
ag17
ag132
ag133
ag185
ag226
ag205
ag166
ag145
ag144
ag143
ag53
ag142
ag174
ag57
ag202
ag163
ag164
ag165
ag43
ag147
ag167
ag168
ag169
ag170
ag162
ag171
ag173
ag37
ag175
ag176
ag177
ag14
ag25
ag179
ag99
ag113
ag112
ag110
ag109
ag108
ag107
ag106
ag104
ag103
ag102
ag100
ag98
ag28
ag134
ag131
ag130
ag122
ag118
ag92
ag64
ag54
ag82
ag74
ag204
ag178
ag180
ag206
ag207
ag182
ag184
ag208
ag209
ag210
ag211
ag212
ag48
ag213
ag214
ag215
ag216
ag50
ag218
ag219
ag220
ag221
ag47
ag222
ag223
ag52
ag224
ag225
ag217
ag139
ag181
ag172
ag146
ag161
ag42
ag160
ag159
ag140
ag141
ag32
ag10
ag7
ag5
ag8
ag29
ag158
ag148
ag149
ag150
ag151
ag45
ag152
ag153
ag154
ag155
ag156
ag157
ag12
atp635
sI138
(S'Vitamin_B_12_mcg_TopFoods'
p636
(lp637
g59
ag61
ag62
ag60
ag37
ag175
ag176
ag35
ag13
ag14
ag12
ag58
ag39
ag177
ag178
ag40
ag56
ag71
ag21
ag24
ag19
ag20
ag69
ag18
ag63
ag55
ag27
ag6
ag9
ag111
ag163
ag209
ag200
ag196
ag195
ag194
ag193
ag88
ag89
ag72
ag51
ag90
ag70
ag87
ag192
ag191
ag190
ag197
ag85
ag86
ag75
ag137
ag203
ag183
ag138
ag199
ag120
ag136
ag73
ag23
ag76
ag201
ag198
ag78
ag79
ag80
ag81
ag49
ag30
ag83
ag84
ag77
ag68
ag65
ag96
ag133
ag22
ag135
ag127
ag44
ag115
ag105
ag114
ag97
ag17
ag26
ag16
ag46
ag31
ag101
ag33
ag34
ag95
ag132
ag11
ag66
ag93
ag67
ag188
ag15
ag91
ag94
ag116
ag4
ag119
ag121
ag129
ag3
ag123
ag124
ag125
ag117
ag126
ag128
ag41
ag189
ag38
ag187
ag25
ag145
ag144
ag143
ag53
ag142
ag174
ag57
ag202
ag164
ag165
ag166
ag43
ag167
ag168
ag169
ag170
ag162
ag171
ag173
ag179
ag180
ag172
ag161
ag147
ag28
ag160
ag204
ag113
ag112
ag110
ag109
ag108
ag107
ag106
ag104
ag103
ag102
ag100
ag99
ag98
ag134
ag131
ag130
ag122
ag118
ag92
ag64
ag54
ag82
ag74
ag42
ag159
ag186
ag208
ag211
ag212
ag48
ag213
ag214
ag215
ag207
ag216
ag218
ag219
ag220
ag221
ag47
ag222
ag223
ag52
ag224
ag225
ag217
ag206
ag205
ag36
ag185
ag210
ag184
ag140
ag182
ag141
ag32
ag10
ag7
ag5
ag8
ag146
ag29
ag148
ag149
ag150
ag151
ag45
ag152
ag153
ag154
ag155
ag156
ag157
ag158
ag181
ag50
ag139
ag226
atp638
sI139
(S'Vitamin_B_6_mg_TopFoods'
p639
(lp640
g127
ag31
ag34
ag42
ag149
ag48
ag151
ag44
ag132
ag135
ag59
ag27
ag150
ag103
ag146
ag109
ag95
ag112
ag96
ag161
ag28
ag141
ag144
ag17
ag172
ag162
ag69
ag71
ag118
ag143
ag64
ag179
ag97
ag61
ag202
ag99
ag130
ag26
ag63
ag62
ag29
ag102
ag56
ag53
ag173
ag171
ag105
ag108
ag16
ag54
ag167
ag100
ag164
ag36
ag174
ag113
ag51
ag168
ag33
ag60
ag170
ag169
ag35
ag166
ag204
ag55
ag23
ag38
ag187
ag147
ag175
ag5
ag131
ag156
ag22
ag165
ag107
ag154
ag140
ag134
ag90
ag223
ag133
ag50
ag110
ag101
ag188
ag184
ag159
ag25
ag177
ag225
ag163
ag157
ag221
ag208
ag218
ag142
ag186
ag39
ag139
ag49
ag115
ag114
ag212
ag46
ag117
ag129
ag183
ag215
ag211
ag45
ag178
ag12
ag220
ag43
ag207
ag148
ag104
ag216
ag182
ag176
ag155
ag92
ag201
ag57
ag81
ag191
ag58
ag75
ag74
ag11
ag80
ag37
ag209
ag98
ag203
ag160
ag145
ag210
ag137
ag180
ag200
ag76
ag13
ag213
ag79
ag120
ag197
ag189
ag158
ag47
ag41
ag194
ag219
ag224
ag136
ag181
ag198
ag83
ag153
ag185
ag8
ag72
ag40
ag88
ag70
ag82
ag199
ag85
ag21
ag7
ag217
ag52
ag138
ag77
ag214
ag14
ag30
ag196
ag73
ag24
ag206
ag20
ag19
ag192
ag222
ag10
ag18
ag32
ag89
ag193
ag190
ag106
ag126
ag195
ag226
ag122
ag87
ag9
ag111
ag6
ag124
ag123
ag78
ag84
ag86
ag125
ag205
ag65
ag66
ag67
ag68
ag15
ag128
ag91
ag94
ag116
ag4
ag119
ag93
ag121
ag3
ag152
atp641
sI140
(S'Vitamin_C_total_ascorbic_acid_mg_TopFoods'
p642
(lp643
g154
ag75
ag137
ag155
ag135
ag211
ag136
ag218
ag132
ag203
ag208
ag196
ag217
ag198
ag120
ag17
ag78
ag191
ag34
ag221
ag139
ag86
ag216
ag201
ag199
ag225
ag77
ag87
ag48
ag138
ag157
ag79
ag215
ag197
ag185
ag183
ag184
ag95
ag89
ag114
ag97
ag101
ag33
ag47
ag61
ag200
ag129
ag59
ag156
ag62
ag146
ag158
ag206
ag73
ag83
ag23
ag117
ag220
ag205
ag50
ag189
ag72
ag90
ag88
ag190
ag210
ag181
ag153
ag51
ag52
ag226
ag84
ag26
ag182
ag105
ag85
ag195
ag141
ag164
ag207
ag42
ag212
ag219
ag167
ag169
ag194
ag173
ag171
ag193
ag192
ag168
ag162
ag46
ag58
ag224
ag8
ag187
ag76
ag60
ag115
ag96
ag188
ag7
ag214
ag10
ag32
ag63
ag186
ag44
ag213
ag209
ag176
ag81
ag45
ag43
ag161
ag53
ag174
ag152
ag5
ag170
ag149
ag172
ag140
ag69
ag80
ag159
ag133
ag127
ag40
ag21
ag38
ag160
ag31
ag11
ag109
ag179
ag18
ag29
ag49
ag70
ag41
ag16
ag145
ag30
ag64
ag100
ag128
ag92
ag118
ag122
ag126
ag22
ag130
ag54
ag131
ag134
ag125
ag124
ag98
ag99
ag36
ag102
ag20
ag113
ag112
ag39
ag111
ag35
ag6
ag24
ag13
ag103
ag19
ag110
ag108
ag107
ag106
ag3
ag104
ag123
ag4
ag121
ag166
ag71
ag144
ag143
ag142
ag57
ag202
ag163
ag165
ag37
ag93
ag175
ag177
ag178
ag180
ag148
ag150
ag151
ag222
ag14
ag147
ag56
ag27
ag119
ag223
ag116
ag94
ag91
ag15
ag68
ag67
ag66
ag65
ag9
ag82
ag74
ag204
ag28
ag25
ag55
ag12
atp644
sI141
(S'Vitamin_D2_ergocalciferol_mcg_TopFoods'
p645
(lp646
g209
ag38
ag78
ag80
ag81
ag49
ag30
ag83
ag84
ag85
ag86
ag87
ag88
ag89
ag51
ag90
ag70
ag72
ag71
ag61
ag69
ag56
ag27
ag55
ag59
ag60
ag58
ag79
ag77
ag185
ag198
ag187
ag188
ag189
ag190
ag191
ag192
ag193
ag194
ag195
ag196
ag197
ag199
ag76
ag200
ag201
ag137
ag203
ag183
ag138
ag120
ag136
ag73
ag23
ag75
ag62
ag63
ag9
ag34
ag115
ag105
ag114
ag96
ag97
ag26
ag16
ag46
ag31
ag101
ag33
ag95
ag127
ag19
ag13
ag20
ag24
ag6
ag35
ag111
ag39
ag40
ag21
ag18
ag44
ag135
ag65
ag3
ag66
ag67
ag68
ag15
ag91
ag94
ag116
ag4
ag119
ag93
ag121
ag123
ag22
ag124
ag125
ag117
ag126
ag128
ag41
ag129
ag11
ag17
ag132
ag133
ag186
ag226
ag36
ag166
ag145
ag144
ag143
ag53
ag142
ag174
ag57
ag202
ag163
ag164
ag165
ag43
ag147
ag167
ag168
ag169
ag170
ag162
ag171
ag173
ag37
ag175
ag176
ag177
ag14
ag25
ag179
ag99
ag113
ag112
ag110
ag109
ag108
ag107
ag106
ag104
ag103
ag102
ag100
ag98
ag28
ag134
ag131
ag130
ag122
ag118
ag92
ag64
ag54
ag82
ag74
ag204
ag178
ag180
ag205
ag216
ag182
ag184
ag208
ag210
ag211
ag212
ag48
ag213
ag214
ag215
ag207
ag218
ag50
ag219
ag220
ag221
ag47
ag222
ag223
ag52
ag224
ag225
ag217
ag206
ag139
ag181
ag172
ag146
ag161
ag42
ag160
ag159
ag140
ag141
ag32
ag10
ag7
ag5
ag8
ag29
ag158
ag148
ag149
ag150
ag151
ag45
ag152
ag153
ag154
ag155
ag156
ag157
ag12
atp647
sI142
(S'Vitamin_D3_cholecalciferol_mcg_TopFoods'
p648
(lp649
g37
ag35
ag39
ag177
ag19
ag13
ag20
ag18
ag63
ag69
ag86
ag85
ag84
ag83
ag38
ag30
ag88
ag49
ag81
ag80
ag87
ag72
ag89
ag51
ag90
ag70
ag78
ag71
ag61
ag56
ag27
ag55
ag79
ag23
ag77
ag198
ag187
ag188
ag189
ag190
ag191
ag192
ag193
ag194
ag195
ag196
ag197
ag199
ag76
ag200
ag201
ag137
ag203
ag183
ag138
ag120
ag136
ag73
ag60
ag75
ag59
ag65
ag58
ag16
ag22
ag135
ag127
ag44
ag115
ag105
ag114
ag96
ag97
ag26
ag46
ag132
ag31
ag101
ag33
ag34
ag95
ag24
ag6
ag111
ag40
ag21
ag133
ag17
ag62
ag119
ag9
ag185
ag66
ag67
ag68
ag15
ag91
ag94
ag116
ag4
ag93
ag11
ag121
ag3
ag123
ag124
ag125
ag117
ag126
ag128
ag41
ag129
ag186
ag226
ag36
ag166
ag145
ag144
ag143
ag53
ag142
ag174
ag57
ag202
ag163
ag164
ag165
ag43
ag147
ag167
ag168
ag169
ag170
ag162
ag171
ag173
ag175
ag176
ag178
ag179
ag14
ag25
ag205
ag99
ag113
ag112
ag110
ag109
ag108
ag107
ag106
ag104
ag103
ag102
ag100
ag98
ag28
ag134
ag131
ag130
ag122
ag118
ag92
ag64
ag54
ag82
ag74
ag204
ag180
ag172
ag161
ag216
ag184
ag208
ag209
ag210
ag211
ag212
ag48
ag213
ag214
ag215
ag207
ag218
ag42
ag219
ag220
ag221
ag47
ag222
ag223
ag52
ag224
ag225
ag217
ag206
ag182
ag139
ag50
ag181
ag160
ag159
ag140
ag141
ag32
ag10
ag7
ag5
ag8
ag146
ag29
ag148
ag149
ag150
ag151
ag45
ag152
ag153
ag154
ag155
ag156
ag157
ag158
ag12
atp650
sI143
(S'Vitamin_D_D2_+_D3_mcg_TopFoods'
p651
(lp652
g66
ag37
ag35
ag39
ag177
ag19
ag13
ag209
ag69
ag20
ag63
ag18
ag81
ag88
ag49
ag80
ag30
ag83
ag84
ag85
ag86
ag87
ag72
ag89
ag51
ag90
ag70
ag78
ag71
ag61
ag56
ag27
ag79
ag38
ag77
ag199
ag188
ag189
ag190
ag191
ag192
ag193
ag194
ag195
ag196
ag197
ag198
ag200
ag76
ag201
ag137
ag203
ag183
ag138
ag120
ag136
ag73
ag23
ag59
ag75
ag55
ag65
ag60
ag16
ag22
ag135
ag127
ag44
ag115
ag105
ag114
ag96
ag97
ag26
ag46
ag132
ag31
ag101
ag33
ag34
ag95
ag24
ag6
ag111
ag40
ag21
ag133
ag17
ag58
ag119
ag62
ag9
ag186
ag67
ag68
ag15
ag91
ag94
ag116
ag4
ag93
ag11
ag121
ag3
ag123
ag124
ag125
ag117
ag126
ag128
ag41
ag129
ag187
ag226
ag185
ag166
ag145
ag144
ag143
ag53
ag142
ag174
ag57
ag202
ag163
ag164
ag165
ag43
ag147
ag167
ag168
ag169
ag170
ag162
ag171
ag173
ag175
ag176
ag178
ag179
ag14
ag25
ag36
ag99
ag113
ag112
ag110
ag109
ag108
ag107
ag106
ag104
ag103
ag102
ag100
ag98
ag28
ag134
ag131
ag130
ag122
ag118
ag92
ag64
ag54
ag82
ag74
ag204
ag180
ag172
ag161
ag218
ag184
ag208
ag210
ag211
ag212
ag48
ag213
ag214
ag215
ag207
ag216
ag219
ag42
ag220
ag221
ag47
ag222
ag223
ag52
ag224
ag225
ag217
ag206
ag205
ag182
ag139
ag50
ag181
ag160
ag159
ag140
ag141
ag32
ag10
ag7
ag5
ag8
ag146
ag29
ag148
ag149
ag150
ag151
ag45
ag152
ag153
ag154
ag155
ag156
ag157
ag158
ag12
atp653
sI144
(S'Vitamin_D_IU_TopFoods'
p654
(lp655
g66
ag37
ag35
ag39
ag177
ag19
ag13
ag209
ag69
ag63
ag18
ag20
ag27
ag24
ag21
ag56
ag61
ag86
ag80
ag81
ag49
ag30
ag83
ag84
ag85
ag87
ag71
ag88
ag89
ag51
ag90
ag70
ag78
ag72
ag79
ag38
ag77
ag76
ag188
ag189
ag190
ag191
ag192
ag193
ag194
ag195
ag196
ag197
ag198
ag199
ag200
ag201
ag137
ag203
ag183
ag138
ag120
ag136
ag73
ag55
ag75
ag23
ag65
ag59
ag97
ag132
ag133
ag22
ag135
ag127
ag44
ag115
ag105
ag114
ag96
ag26
ag60
ag16
ag46
ag31
ag101
ag33
ag34
ag95
ag6
ag111
ag40
ag17
ag11
ag129
ag41
ag58
ag62
ag9
ag186
ag67
ag68
ag15
ag91
ag94
ag116
ag4
ag119
ag93
ag121
ag3
ag123
ag124
ag125
ag117
ag126
ag128
ag187
ag226
ag185
ag166
ag145
ag144
ag143
ag53
ag142
ag174
ag57
ag202
ag163
ag164
ag165
ag43
ag147
ag167
ag168
ag169
ag170
ag162
ag171
ag173
ag175
ag176
ag178
ag179
ag14
ag25
ag36
ag99
ag113
ag112
ag110
ag109
ag108
ag107
ag106
ag104
ag103
ag102
ag100
ag98
ag28
ag134
ag131
ag130
ag122
ag118
ag92
ag64
ag54
ag82
ag74
ag204
ag180
ag172
ag161
ag218
ag184
ag208
ag210
ag211
ag212
ag48
ag213
ag214
ag215
ag207
ag216
ag219
ag42
ag220
ag221
ag47
ag222
ag223
ag52
ag224
ag225
ag217
ag206
ag205
ag182
ag139
ag50
ag181
ag160
ag159
ag140
ag141
ag32
ag10
ag7
ag5
ag8
ag146
ag29
ag148
ag149
ag150
ag151
ag45
ag152
ag153
ag154
ag155
ag156
ag157
ag158
ag12
atp656
sI145
(S'Vitamin_E_added_mg_TopFoods'
p657
(lp658
g38
ag36
ag79
ag80
ag81
ag49
ag30
ag83
ag84
ag85
ag86
ag87
ag88
ag89
ag51
ag90
ag70
ag72
ag71
ag61
ag69
ag56
ag27
ag55
ag59
ag60
ag58
ag78
ag77
ag76
ag197
ag186
ag187
ag188
ag189
ag190
ag191
ag192
ag193
ag194
ag195
ag196
ag198
ag75
ag199
ag200
ag201
ag137
ag203
ag183
ag138
ag120
ag136
ag73
ag23
ag62
ag63
ag9
ag34
ag115
ag105
ag114
ag96
ag97
ag26
ag16
ag46
ag31
ag101
ag33
ag95
ag127
ag19
ag13
ag20
ag24
ag6
ag35
ag111
ag39
ag40
ag21
ag18
ag44
ag135
ag65
ag3
ag66
ag67
ag68
ag15
ag91
ag94
ag116
ag4
ag119
ag93
ag121
ag123
ag22
ag124
ag125
ag117
ag126
ag128
ag41
ag129
ag11
ag17
ag132
ag133
ag185
ag226
ag205
ag166
ag145
ag144
ag143
ag53
ag142
ag174
ag57
ag202
ag163
ag164
ag165
ag43
ag147
ag167
ag168
ag169
ag170
ag162
ag171
ag173
ag37
ag175
ag176
ag177
ag14
ag25
ag179
ag99
ag113
ag112
ag110
ag109
ag108
ag107
ag106
ag104
ag103
ag102
ag100
ag98
ag28
ag134
ag131
ag130
ag122
ag118
ag92
ag64
ag54
ag82
ag74
ag204
ag178
ag180
ag206
ag207
ag182
ag184
ag208
ag209
ag210
ag211
ag212
ag48
ag213
ag214
ag215
ag216
ag50
ag218
ag219
ag220
ag221
ag47
ag222
ag223
ag52
ag224
ag225
ag217
ag139
ag181
ag172
ag146
ag161
ag42
ag160
ag159
ag140
ag141
ag32
ag10
ag7
ag5
ag8
ag29
ag158
ag148
ag149
ag150
ag151
ag45
ag152
ag153
ag154
ag155
ag156
ag157
ag12
atp659
sI146
(S'Vitamin_E_alpha_tocopherol_mg_TopFoods'
p660
(lp661
g67
ag94
ag31
ag149
ag124
ag127
ag148
ag44
ag93
ag123
ag141
ag121
ag116
ag160
ag135
ag16
ag166
ag91
ag17
ag144
ag105
ag11
ag4
ag177
ag26
ag106
ag42
ag35
ag215
ag33
ag64
ag183
ag46
ag6
ag45
ag30
ag161
ag90
ag157
ag208
ag202
ag133
ag9
ag70
ag136
ag134
ag159
ag119
ag83
ag37
ag89
ag181
ag39
ag22
ag100
ag29
ag201
ag72
ag199
ag185
ag131
ag164
ag143
ag162
ag129
ag110
ag218
ag195
ag75
ag102
ag172
ag59
ag154
ag207
ag211
ag103
ag189
ag178
ag147
ag109
ag108
ag88
ag27
ag140
ag167
ag38
ag99
ag152
ag13
ag107
ag5
ag113
ag220
ag170
ag79
ag41
ag80
ag156
ag23
ag58
ag28
ag137
ag179
ag213
ag196
ag217
ag71
ag226
ag184
ag98
ag190
ag212
ag150
ag222
ag8
ag138
ag210
ag55
ag171
ag14
ag63
ag197
ag188
ag194
ag76
ag198
ag56
ag10
ag87
ag216
ag120
ag139
ag69
ag77
ag82
ag187
ag43
ag186
ag193
ag36
ag3
ag130
ag81
ag224
ag51
ag48
ag203
ag85
ag20
ag19
ag204
ag18
ag49
ag54
ag52
ag219
ag192
ag21
ag214
ag182
ag191
ag200
ag24
ag163
ag209
ag145
ag53
ag25
ag74
ag132
ag142
ag174
ag115
ag225
ag114
ag96
ag97
ag92
ag118
ag101
ag122
ag34
ag95
ag104
ag111
ag112
ag40
ag57
ag7
ag128
ag84
ag151
ag153
ag155
ag158
ag50
ag86
ag78
ag146
ag73
ag221
ag47
ag223
ag205
ag206
ag61
ag60
ag126
ag175
ag117
ag125
ag165
ag168
ag169
ag173
ag176
ag62
ag180
ag15
ag68
ag32
ag66
ag65
ag12
atp662
sI147
(S'Vitamin_K_phylloquinone_mcg_TopFoods'
p663
(lp664
g17
ag135
ag221
ag44
ag157
ag129
ag211
ag215
ag208
ag91
ag22
ag16
ag210
ag31
ag218
ag127
ag216
ag202
ag121
ag183
ag160
ag164
ag220
ag136
ag29
ag184
ag46
ag163
ag226
ag188
ag139
ag4
ag124
ag90
ag89
ag88
ag171
ag189
ag214
ag43
ag194
ag80
ag76
ag154
ag141
ag119
ag11
ag207
ag177
ag192
ag143
ag162
ag167
ag93
ag185
ag199
ag30
ag45
ag94
ag28
ag6
ag190
ag38
ag106
ag131
ag134
ag67
ag105
ag26
ag83
ag170
ag9
ag81
ag193
ag179
ag201
ag110
ag187
ag159
ag213
ag186
ag72
ag200
ag224
ag56
ag172
ag49
ag161
ag223
ag196
ag195
ag222
ag75
ag55
ag156
ag108
ag217
ag109
ag147
ag85
ag100
ag102
ag204
ag63
ag48
ag13
ag137
ag41
ag107
ag158
ag181
ag70
ag54
ag36
ag71
ag191
ag35
ag123
ag138
ag3
ag51
ag203
ag182
ag5
ag20
ag113
ag19
ag39
ag21
ag40
ag18
ag219
ag8
ag178
ag82
ag10
ag37
ag52
ag212
ag24
ag130
ag15
ag116
ag68
ag118
ag66
ag65
ag122
ag114
ag98
ag111
ag115
ag96
ag97
ag112
ag104
ag133
ag132
ag101
ag33
ag103
ag34
ag95
ag128
ag126
ag117
ag125
ag99
ag140
ag74
ag62
ag209
ag205
ag206
ag225
ag47
ag165
ag166
ag168
ag169
ag173
ag175
ag176
ag180
ag58
ag50
ag155
ag153
ag152
ag42
ag151
ag150
ag149
ag148
ag146
ag7
ag57
ag174
ag142
ag53
ag60
ag59
ag27
ag69
ag61
ag92
ag64
ag87
ag86
ag84
ag32
ag79
ag78
ag77
ag23
ag73
ag25
ag120
ag14
ag198
ag197
ag145
ag144
ag12
atp665
sI148
(S'Water_g_TopFoods'
p666
(lp667
g153
ag158
ag214
ag32
ag210
ag226
ag209
ag213
ag215
ag216
ag129
ag221
ag181
ag52
ag157
ag87
ag217
ag77
ag208
ag220
ag24
ag200
ag211
ag184
ag218
ag182
ag120
ag195
ag207
ag138
ag155
ag89
ag20
ag196
ag19
ag18
ag79
ag154
ag199
ag219
ag111
ag83
ag190
ag198
ag205
ag72
ag191
ag185
ag117
ag222
ag40
ag197
ag21
ag88
ag86
ag193
ag41
ag201
ag50
ag73
ag136
ag85
ag203
ag57
ag75
ag76
ag58
ag175
ag81
ag84
ag212
ag139
ag206
ag189
ag59
ag125
ag56
ag39
ag176
ag70
ag63
ag55
ag69
ag51
ag62
ag61
ag27
ag60
ag23
ag178
ag71
ag225
ag90
ag82
ag37
ag145
ag188
ag156
ag10
ag192
ag122
ag47
ag48
ag7
ag126
ag35
ag177
ag13
ag8
ag9
ag12
ag163
ag194
ag224
ag80
ag14
ag137
ag223
ag49
ag6
ag30
ag186
ag187
ag183
ag64
ag11
ag98
ag22
ag99
ag118
ag108
ag103
ag170
ag132
ag130
ag171
ag127
ag28
ag110
ag134
ag113
ag173
ag31
ag102
ag131
ag165
ag46
ag169
ag100
ag112
ag143
ag38
ag44
ag104
ag16
ag33
ag25
ag168
ag95
ag147
ag167
ag204
ag146
ag96
ag97
ag43
ag54
ag36
ag74
ag164
ag174
ag142
ag101
ag92
ag109
ag107
ag114
ag26
ag53
ag17
ag162
ag78
ag179
ag166
ag115
ag133
ag135
ag152
ag151
ag34
ag141
ag105
ag45
ag29
ag202
ag180
ag106
ag149
ag150
ag161
ag148
ag42
ag172
ag159
ag5
ag160
ag144
ag140
ag128
ag3
ag65
ag66
ag67
ag91
ag68
ag124
ag123
ag121
ag93
ag119
ag4
ag116
ag94
ag15
atp668
sI149
(S'Zinc_Zn_mg_TopFoods'
p669
(lp670
g180
ag133
ag45
ag150
ag101
ag60
ag160
ag17
ag105
ag29
ag33
ag135
ag95
ag151
ag149
ag164
ag26
ag169
ag152
ag159
ag11
ag142
ag179
ag127
ag31
ag92
ag202
ag34
ag97
ag53
ag174
ag43
ag100
ag61
ag161
ag170
ag62
ag110
ag166
ag28
ag148
ag64
ag172
ag13
ag12
ag107
ag143
ag171
ag147
ag162
ag165
ag58
ag44
ag167
ag144
ag59
ag131
ag36
ag102
ag163
ag96
ag103
ag141
ag177
ag25
ag16
ag35
ag114
ag112
ag42
ag134
ag115
ag109
ag118
ag5
ag108
ag204
ag168
ag173
ag55
ag46
ag56
ag113
ag178
ag54
ag99
ag69
ag38
ag145
ag63
ag71
ag140
ag39
ag139
ag22
ag48
ag14
ag8
ag132
ag117
ag98
ag40
ag7
ag221
ag21
ag74
ag129
ag130
ag104
ag122
ag27
ag10
ag176
ag37
ag41
ag90
ag106
ag18
ag184
ag194
ag57
ag80
ag89
ag157
ag209
ag215
ag183
ag155
ag223
ag185
ag24
ag218
ag175
ag211
ag19
ag187
ag20
ag186
ag146
ag189
ag219
ag50
ag212
ag181
ag154
ag49
ag137
ag158
ag153
ag9
ag82
ag208
ag207
ag220
ag156
ag75
ag214
ag72
ag188
ag192
ag47
ag210
ag216
ag195
ag182
ag213
ag88
ag81
ag51
ag70
ag136
ag217
ag23
ag199
ag79
ag191
ag87
ag138
ag126
ag30
ag128
ag226
ag193
ag190
ag206
ag225
ag224
ag52
ag32
ag200
ag201
ag83
ag6
ag196
ag125
ag197
ag198
ag203
ag76
ag77
ag85
ag120
ag222
ag111
ag3
ag123
ag66
ag205
ag67
ag68
ag15
ag91
ag94
ag116
ag93
ag4
ag119
ag73
ag121
ag124
ag86
ag84
ag78
ag65
atp671
s.